
krnl.bin:     file format coff-go32

Disassembly of section .text:

00100000 <__code>:
  100000:	b8 00 90 10 00 	movl   $0x109000,%eax
  100005:	a1 00 40 10 00 	movl   0x104000,%eax
  10000a:	3d 2a da 44 35 	cmpl   $0x3544da2a,%eax
  10000f:	74 29          	je     10003a <ds_ok>
  100011:	66 c7 05 00 80 	movw   $0x44,0xb8000
  100016:	0b 00 44 00 
  10001a:	66 c7 05 02 80 	movw   $0x53,0xb8002
  10001f:	0b 00 53 00 
  100023:	66 c7 05 00 00 	movw   $0x44,0xb0000
  100028:	0b 00 44 00 
  10002c:	66 c7 05 02 00 	movw   $0x53,0xb0002
  100031:	0b 00 53 00 
  100035:	e9 fb ff ff ff 	jmp    100035 <__code+35>

0010003a <ds_ok>:
  10003a:	0f 01 15 44 40 	lgdt   0x104044
  10003f:	10 00 
  100041:	66 b8 10 00    	movw   $0x10,%ax
  100045:	66 8e d8       	movw   %ax,%ds
  100048:	66 8e c0       	movw   %ax,%es
  10004b:	66 8e d0       	movw   %ax,%ss
  10004e:	66 8e e0       	movw   %ax,%fs
  100051:	66 8e e8       	movw   %ax,%gs
  100054:	ea 5b 00 10 00 	ljmp   0x18,0x10005b
  100059:	18 00 

0010005b <sbat>:
  10005b:	bf 00 50 10 00 	movl   $0x105000,%edi
  100060:	b9 00 90 10 00 	movl   $0x109000,%ecx
  100065:	29 f9          	subl   %edi,%ecx
  100067:	31 c0          	xorl   %eax,%eax
  100069:	f3 aa          	repz stosb %al,%es:(%edi)
  10006b:	bc 00 60 10 00 	movl   $0x106000,%esp
  100070:	b8 00 90 10 00 	movl   $0x109000,%eax
  100075:	2d 00 00 10 00 	subl   $0x100000,%eax
  10007a:	a3 04 40 10 00 	movl   %eax,0x104004
  10007f:	b8 00 00 10 00 	movl   $0x100000,%eax
  100084:	a3 18 40 10 00 	movl   %eax,0x104018
  100089:	b8 00 40 10 00 	movl   $0x104000,%eax
  10008e:	a3 1c 40 10 00 	movl   %eax,0x10401c
  100093:	b8 00 50 10 00 	movl   $0x105000,%eax
  100098:	a3 20 40 10 00 	movl   %eax,0x104020
  10009d:	8b 43 04       	movl   0x4(%ebx),%eax
  1000a0:	a3 08 40 10 00 	movl   %eax,0x104008
  1000a5:	8b 43 08       	movl   0x8(%ebx),%eax
  1000a8:	a3 0c 40 10 00 	movl   %eax,0x10400c
  1000ad:	8b 43 0c       	movl   0xc(%ebx),%eax
  1000b0:	a3 10 40 10 00 	movl   %eax,0x104010
  1000b5:	8b 43 10       	movl   0x10(%ebx),%eax
  1000b8:	a3 14 40 10 00 	movl   %eax,0x104014
  1000bd:	b9 00 01 00 00 	movl   $0x100,%ecx
  1000c2:	bf 4a 40 10 00 	movl   $0x10404a,%edi
  1000c7:	be 9b 01 10 00 	movl   $0x10019b,%esi

001000cc <do_idt>:
  1000cc:	89 f0          	movl   %esi,%eax
  1000ce:	66 89 07       	movw   %ax,(%edi)
  1000d1:	c1 e8 10       	shrl   $0x10,%eax
  1000d4:	66 89 47 06    	movw   %ax,0x6(%edi)
  1000d8:	81 c7 08 00 00 	addl   $0x8,%edi
  1000dd:	00 
  1000de:	81 c6 26 00 00 	addl   $0x26,%esi
  1000e3:	00 
  1000e4:	e2 e6          	loop   1000cc <do_idt>
  1000e6:	0f 01 1d 4a 48 	lidt   0x10484a
  1000eb:	10 00 
  1000ed:	e8 4e 2d 00 00 	call   102e40 <_main>
  1000f2:	e9 fb ff ff ff 	jmp    1000f2 <do_idt+26>
  1000f7:	90             	nop    

001000f8 <mboot>:
  1000f8:	02 b0 ad 1b 03 	addb   0x31bad(%eax),%dh
  1000fd:	00 
  1000fe:	01 00          	addl   %eax,(%eax)
  100100:	fb             	sti    
  100101:	4f             	decl   %edi
  100102:	51             	pushl  %ecx
  100103:	e4 f8          	inb    $0xf8,%al
  100105:	00 10          	addb   %dl,(%eax)
  100107:	00 00          	addb   %al,(%eax)
  100109:	00 10          	addb   %dl,(%eax)
  10010b:	00 00          	addb   %al,(%eax)
  10010d:	50             	pushl  %eax
  10010e:	10 00          	adcb   %al,(%eax)
  100110:	00 90 10 00 00 	addb   %dl,0x10(%eax)
  100115:	00 
  100116:	10 00          	adcb   %al,(%eax)

00100118 <all_ints>:
  100118:	58             	popl   %eax
  100119:	61             	popa   
  10011a:	1f             	popl   %ds
  10011b:	07             	popl   %es
  10011c:	0f a1          	popl   %fs
  10011e:	0f a9          	popl   %gs
  100120:	81 c4 08 00 00 	addl   $0x8,%esp
  100125:	00 
  100126:	cf             	iret   

00100127 <_getvect>:
  100127:	55             	pushl  %ebp
  100128:	89 e5          	movl   %esp,%ebp
  10012a:	56             	pushl  %esi
  10012b:	53             	pushl  %ebx
  10012c:	8b 75 08       	movl   0x8(%ebp),%esi
  10012f:	31 db          	xorl   %ebx,%ebx
  100131:	8a 5d 0c       	movb   0xc(%ebp),%bl
  100134:	c1 e3 03       	shll   $0x3,%ebx
  100137:	8a 83 4f 40 10 	movb   0x10404f(%ebx),%al
  10013c:	00 
  10013d:	89 06          	movl   %eax,(%esi)
  10013f:	b8 c1 01 10 00 	movl   $0x1001c1,%eax
  100144:	2d 9b 01 10 00 	subl   $0x10019b,%eax
  100149:	f6 65 0c       	mulb   0xc(%ebp),%al
  10014c:	89 c3          	movl   %eax,%ebx
  10014e:	81 c3 9b 01 10 	addl   $0x10019b,%ebx
  100153:	00 
  100154:	8b 83 1b 00 00 	movl   0x1b(%ebx),%eax
  100159:	00 
  10015a:	89 46 04       	movl   %eax,0x4(%esi)
  10015d:	5b             	popl   %ebx
  10015e:	5e             	popl   %esi
  10015f:	5d             	popl   %ebp
  100160:	c3             	ret    

00100161 <_setvect>:
  100161:	55             	pushl  %ebp
  100162:	89 e5          	movl   %esp,%ebp
  100164:	56             	pushl  %esi
  100165:	53             	pushl  %ebx
  100166:	8b 75 08       	movl   0x8(%ebp),%esi
  100169:	8b 06          	movl   (%esi),%eax
  10016b:	31 db          	xorl   %ebx,%ebx
  10016d:	8a 5d 0c       	movb   0xc(%ebp),%bl
  100170:	c1 e3 03       	shll   $0x3,%ebx
  100173:	88 83 4f 40 10 	movb   %al,0x10404f(%ebx)
  100178:	00 
  100179:	b8 c1 01 10 00 	movl   $0x1001c1,%eax
  10017e:	2d 9b 01 10 00 	subl   $0x10019b,%eax
  100183:	f6 65 0c       	mulb   0xc(%ebp),%al
  100186:	89 c3          	movl   %eax,%ebx
  100188:	81 c3 9b 01 10 	addl   $0x10019b,%ebx
  10018d:	00 
  10018e:	8b 46 04       	movl   0x4(%esi),%eax
  100191:	89 83 1b 00 00 	movl   %eax,0x1b(%ebx)
  100196:	00 
  100197:	5b             	popl   %ebx
  100198:	5e             	popl   %esi
  100199:	5d             	popl   %ebp
  10019a:	c3             	ret    

0010019b <isr0>:
  10019b:	6a 00          	pushl  $0x0
  10019d:	6a 00          	pushl  $0x0
  10019f:	0f a8          	pushl  %gs
  1001a1:	0f a0          	pushl  %fs
  1001a3:	06             	pushl  %es
  1001a4:	1e             	pushl  %ds
  1001a5:	60             	pusha  
  1001a6:	66 b8 10 00    	movw   $0x10,%ax
  1001aa:	8e d8          	movw   %ax,%ds
  1001ac:	8e c0          	movw   %ax,%es
  1001ae:	8e e0          	movw   %ax,%fs
  1001b0:	8e e8          	movw   %ax,%gs
  1001b2:	89 e0          	movl   %esp,%eax
  1001b4:	50             	pushl  %eax

001001b5 <isr0.1>:
  1001b5:	b8 48 2a 10 00 	movl   $0x102a48,%eax
  1001ba:	ff d0          	call   *%eax
  1001bc:	e9 57 ff ff ff 	jmp    100118 <all_ints>

001001c1 <isr1>:
  1001c1:	6a 00          	pushl  $0x0
  1001c3:	6a 01          	pushl  $0x1
  1001c5:	0f a8          	pushl  %gs
  1001c7:	0f a0          	pushl  %fs
  1001c9:	06             	pushl  %es
  1001ca:	1e             	pushl  %ds
  1001cb:	60             	pusha  
  1001cc:	66 b8 10 00    	movw   $0x10,%ax
  1001d0:	8e d8          	movw   %ax,%ds
  1001d2:	8e c0          	movw   %ax,%es
  1001d4:	8e e0          	movw   %ax,%fs
  1001d6:	8e e8          	movw   %ax,%gs
  1001d8:	89 e0          	movl   %esp,%eax
  1001da:	50             	pushl  %eax

001001db <isr1.1>:
  1001db:	b8 48 2a 10 00 	movl   $0x102a48,%eax
  1001e0:	ff d0          	call   *%eax
  1001e2:	e9 31 ff ff ff 	jmp    100118 <all_ints>

001001e7 <isr2>:
  1001e7:	6a 00          	pushl  $0x0
  1001e9:	6a 02          	pushl  $0x2
  1001eb:	0f a8          	pushl  %gs
  1001ed:	0f a0          	pushl  %fs
  1001ef:	06             	pushl  %es
  1001f0:	1e             	pushl  %ds
  1001f1:	60             	pusha  
  1001f2:	66 b8 10 00    	movw   $0x10,%ax
  1001f6:	8e d8          	movw   %ax,%ds
  1001f8:	8e c0          	movw   %ax,%es
  1001fa:	8e e0          	movw   %ax,%fs
  1001fc:	8e e8          	movw   %ax,%gs
  1001fe:	89 e0          	movl   %esp,%eax
  100200:	50             	pushl  %eax

00100201 <isr2.1>:
  100201:	b8 48 2a 10 00 	movl   $0x102a48,%eax
  100206:	ff d0          	call   *%eax
  100208:	e9 0b ff ff ff 	jmp    100118 <all_ints>

0010020d <isr3>:
  10020d:	6a 00          	pushl  $0x0
  10020f:	6a 03          	pushl  $0x3
  100211:	0f a8          	pushl  %gs
  100213:	0f a0          	pushl  %fs
  100215:	06             	pushl  %es
  100216:	1e             	pushl  %ds
  100217:	60             	pusha  
  100218:	66 b8 10 00    	movw   $0x10,%ax
  10021c:	8e d8          	movw   %ax,%ds
  10021e:	8e c0          	movw   %ax,%es
  100220:	8e e0          	movw   %ax,%fs
  100222:	8e e8          	movw   %ax,%gs
  100224:	89 e0          	movl   %esp,%eax
  100226:	50             	pushl  %eax

00100227 <isr3.1>:
  100227:	b8 48 2a 10 00 	movl   $0x102a48,%eax
  10022c:	ff d0          	call   *%eax
  10022e:	e9 e5 fe ff ff 	jmp    100118 <all_ints>

00100233 <isr4>:
  100233:	6a 00          	pushl  $0x0
  100235:	6a 04          	pushl  $0x4
  100237:	0f a8          	pushl  %gs
  100239:	0f a0          	pushl  %fs
  10023b:	06             	pushl  %es
  10023c:	1e             	pushl  %ds
  10023d:	60             	pusha  
  10023e:	66 b8 10 00    	movw   $0x10,%ax
  100242:	8e d8          	movw   %ax,%ds
  100244:	8e c0          	movw   %ax,%es
  100246:	8e e0          	movw   %ax,%fs
  100248:	8e e8          	movw   %ax,%gs
  10024a:	89 e0          	movl   %esp,%eax
  10024c:	50             	pushl  %eax

0010024d <isr4.1>:
  10024d:	b8 48 2a 10 00 	movl   $0x102a48,%eax
  100252:	ff d0          	call   *%eax
  100254:	e9 bf fe ff ff 	jmp    100118 <all_ints>

00100259 <isr5>:
  100259:	6a 00          	pushl  $0x0
  10025b:	6a 05          	pushl  $0x5
  10025d:	0f a8          	pushl  %gs
  10025f:	0f a0          	pushl  %fs
  100261:	06             	pushl  %es
  100262:	1e             	pushl  %ds
  100263:	60             	pusha  
  100264:	66 b8 10 00    	movw   $0x10,%ax
  100268:	8e d8          	movw   %ax,%ds
  10026a:	8e c0          	movw   %ax,%es
  10026c:	8e e0          	movw   %ax,%fs
  10026e:	8e e8          	movw   %ax,%gs
  100270:	89 e0          	movl   %esp,%eax
  100272:	50             	pushl  %eax

00100273 <isr5.1>:
  100273:	b8 48 2a 10 00 	movl   $0x102a48,%eax
  100278:	ff d0          	call   *%eax
  10027a:	e9 99 fe ff ff 	jmp    100118 <all_ints>

0010027f <isr6>:
  10027f:	6a 00          	pushl  $0x0
  100281:	6a 06          	pushl  $0x6
  100283:	0f a8          	pushl  %gs
  100285:	0f a0          	pushl  %fs
  100287:	06             	pushl  %es
  100288:	1e             	pushl  %ds
  100289:	60             	pusha  
  10028a:	66 b8 10 00    	movw   $0x10,%ax
  10028e:	8e d8          	movw   %ax,%ds
  100290:	8e c0          	movw   %ax,%es
  100292:	8e e0          	movw   %ax,%fs
  100294:	8e e8          	movw   %ax,%gs
  100296:	89 e0          	movl   %esp,%eax
  100298:	50             	pushl  %eax

00100299 <isr6.1>:
  100299:	b8 48 2a 10 00 	movl   $0x102a48,%eax
  10029e:	ff d0          	call   *%eax
  1002a0:	e9 73 fe ff ff 	jmp    100118 <all_ints>

001002a5 <isr7>:
  1002a5:	6a 00          	pushl  $0x0
  1002a7:	6a 07          	pushl  $0x7
  1002a9:	0f a8          	pushl  %gs
  1002ab:	0f a0          	pushl  %fs
  1002ad:	06             	pushl  %es
  1002ae:	1e             	pushl  %ds
  1002af:	60             	pusha  
  1002b0:	66 b8 10 00    	movw   $0x10,%ax
  1002b4:	8e d8          	movw   %ax,%ds
  1002b6:	8e c0          	movw   %ax,%es
  1002b8:	8e e0          	movw   %ax,%fs
  1002ba:	8e e8          	movw   %ax,%gs
  1002bc:	89 e0          	movl   %esp,%eax
  1002be:	50             	pushl  %eax

001002bf <isr7.1>:
  1002bf:	b8 48 2a 10 00 	movl   $0x102a48,%eax
  1002c4:	ff d0          	call   *%eax
  1002c6:	e9 4d fe ff ff 	jmp    100118 <all_ints>

001002cb <isr8>:
  1002cb:	90             	nop    
  1002cc:	90             	nop    
  1002cd:	6a 08          	pushl  $0x8
  1002cf:	0f a8          	pushl  %gs
  1002d1:	0f a0          	pushl  %fs
  1002d3:	06             	pushl  %es
  1002d4:	1e             	pushl  %ds
  1002d5:	60             	pusha  
  1002d6:	66 b8 10 00    	movw   $0x10,%ax
  1002da:	8e d8          	movw   %ax,%ds
  1002dc:	8e c0          	movw   %ax,%es
  1002de:	8e e0          	movw   %ax,%fs
  1002e0:	8e e8          	movw   %ax,%gs
  1002e2:	89 e0          	movl   %esp,%eax
  1002e4:	50             	pushl  %eax

001002e5 <isr8.1>:
  1002e5:	b8 48 2a 10 00 	movl   $0x102a48,%eax
  1002ea:	ff d0          	call   *%eax
  1002ec:	e9 27 fe ff ff 	jmp    100118 <all_ints>

001002f1 <isr9>:
  1002f1:	6a 00          	pushl  $0x0
  1002f3:	6a 09          	pushl  $0x9
  1002f5:	0f a8          	pushl  %gs
  1002f7:	0f a0          	pushl  %fs
  1002f9:	06             	pushl  %es
  1002fa:	1e             	pushl  %ds
  1002fb:	60             	pusha  
  1002fc:	66 b8 10 00    	movw   $0x10,%ax
  100300:	8e d8          	movw   %ax,%ds
  100302:	8e c0          	movw   %ax,%es
  100304:	8e e0          	movw   %ax,%fs
  100306:	8e e8          	movw   %ax,%gs
  100308:	89 e0          	movl   %esp,%eax
  10030a:	50             	pushl  %eax

0010030b <isr9.1>:
  10030b:	b8 48 2a 10 00 	movl   $0x102a48,%eax
  100310:	ff d0          	call   *%eax
  100312:	e9 01 fe ff ff 	jmp    100118 <all_ints>

00100317 <isr0Ah>:
  100317:	90             	nop    
  100318:	90             	nop    
  100319:	6a 0a          	pushl  $0xa
  10031b:	0f a8          	pushl  %gs
  10031d:	0f a0          	pushl  %fs
  10031f:	06             	pushl  %es
  100320:	1e             	pushl  %ds
  100321:	60             	pusha  
  100322:	66 b8 10 00    	movw   $0x10,%ax
  100326:	8e d8          	movw   %ax,%ds
  100328:	8e c0          	movw   %ax,%es
  10032a:	8e e0          	movw   %ax,%fs
  10032c:	8e e8          	movw   %ax,%gs
  10032e:	89 e0          	movl   %esp,%eax
  100330:	50             	pushl  %eax

00100331 <isr0Ah.1>:
  100331:	b8 48 2a 10 00 	movl   $0x102a48,%eax
  100336:	ff d0          	call   *%eax
  100338:	e9 db fd ff ff 	jmp    100118 <all_ints>

0010033d <isr0Bh>:
  10033d:	90             	nop    
  10033e:	90             	nop    
  10033f:	6a 0b          	pushl  $0xb
  100341:	0f a8          	pushl  %gs
  100343:	0f a0          	pushl  %fs
  100345:	06             	pushl  %es
  100346:	1e             	pushl  %ds
  100347:	60             	pusha  
  100348:	66 b8 10 00    	movw   $0x10,%ax
  10034c:	8e d8          	movw   %ax,%ds
  10034e:	8e c0          	movw   %ax,%es
  100350:	8e e0          	movw   %ax,%fs
  100352:	8e e8          	movw   %ax,%gs
  100354:	89 e0          	movl   %esp,%eax
  100356:	50             	pushl  %eax

00100357 <isr0Bh.1>:
  100357:	b8 48 2a 10 00 	movl   $0x102a48,%eax
  10035c:	ff d0          	call   *%eax
  10035e:	e9 b5 fd ff ff 	jmp    100118 <all_ints>

00100363 <isr0Ch>:
  100363:	90             	nop    
  100364:	90             	nop    
  100365:	6a 0c          	pushl  $0xc
  100367:	0f a8          	pushl  %gs
  100369:	0f a0          	pushl  %fs
  10036b:	06             	pushl  %es
  10036c:	1e             	pushl  %ds
  10036d:	60             	pusha  
  10036e:	66 b8 10 00    	movw   $0x10,%ax
  100372:	8e d8          	movw   %ax,%ds
  100374:	8e c0          	movw   %ax,%es
  100376:	8e e0          	movw   %ax,%fs
  100378:	8e e8          	movw   %ax,%gs
  10037a:	89 e0          	movl   %esp,%eax
  10037c:	50             	pushl  %eax

0010037d <isr0Ch.1>:
  10037d:	b8 48 2a 10 00 	movl   $0x102a48,%eax
  100382:	ff d0          	call   *%eax
  100384:	e9 8f fd ff ff 	jmp    100118 <all_ints>

00100389 <isr0Dh>:
  100389:	90             	nop    
  10038a:	90             	nop    
  10038b:	6a 0d          	pushl  $0xd
  10038d:	0f a8          	pushl  %gs
  10038f:	0f a0          	pushl  %fs
  100391:	06             	pushl  %es
  100392:	1e             	pushl  %ds
  100393:	60             	pusha  
  100394:	66 b8 10 00    	movw   $0x10,%ax
  100398:	8e d8          	movw   %ax,%ds
  10039a:	8e c0          	movw   %ax,%es
  10039c:	8e e0          	movw   %ax,%fs
  10039e:	8e e8          	movw   %ax,%gs
  1003a0:	89 e0          	movl   %esp,%eax
  1003a2:	50             	pushl  %eax

001003a3 <isr0Dh.1>:
  1003a3:	b8 48 2a 10 00 	movl   $0x102a48,%eax
  1003a8:	ff d0          	call   *%eax
  1003aa:	e9 69 fd ff ff 	jmp    100118 <all_ints>

001003af <isr0Eh>:
  1003af:	90             	nop    
  1003b0:	90             	nop    
  1003b1:	6a 0e          	pushl  $0xe
  1003b3:	0f a8          	pushl  %gs
  1003b5:	0f a0          	pushl  %fs
  1003b7:	06             	pushl  %es
  1003b8:	1e             	pushl  %ds
  1003b9:	60             	pusha  
  1003ba:	66 b8 10 00    	movw   $0x10,%ax
  1003be:	8e d8          	movw   %ax,%ds
  1003c0:	8e c0          	movw   %ax,%es
  1003c2:	8e e0          	movw   %ax,%fs
  1003c4:	8e e8          	movw   %ax,%gs
  1003c6:	89 e0          	movl   %esp,%eax
  1003c8:	50             	pushl  %eax

001003c9 <isr0Eh.1>:
  1003c9:	b8 48 2a 10 00 	movl   $0x102a48,%eax
  1003ce:	ff d0          	call   *%eax
  1003d0:	e9 43 fd ff ff 	jmp    100118 <all_ints>

001003d5 <isr0Fh>:
  1003d5:	6a 00          	pushl  $0x0
  1003d7:	6a 0f          	pushl  $0xf
  1003d9:	0f a8          	pushl  %gs
  1003db:	0f a0          	pushl  %fs
  1003dd:	06             	pushl  %es
  1003de:	1e             	pushl  %ds
  1003df:	60             	pusha  
  1003e0:	66 b8 10 00    	movw   $0x10,%ax
  1003e4:	8e d8          	movw   %ax,%ds
  1003e6:	8e c0          	movw   %ax,%es
  1003e8:	8e e0          	movw   %ax,%fs
  1003ea:	8e e8          	movw   %ax,%gs
  1003ec:	89 e0          	movl   %esp,%eax
  1003ee:	50             	pushl  %eax

001003ef <isr0Fh.1>:
  1003ef:	b8 48 2a 10 00 	movl   $0x102a48,%eax
  1003f4:	ff d0          	call   *%eax
  1003f6:	e9 1d fd ff ff 	jmp    100118 <all_ints>

001003fb <isr10h>:
  1003fb:	6a 00          	pushl  $0x0
  1003fd:	6a 10          	pushl  $0x10
  1003ff:	0f a8          	pushl  %gs
  100401:	0f a0          	pushl  %fs
  100403:	06             	pushl  %es
  100404:	1e             	pushl  %ds
  100405:	60             	pusha  
  100406:	66 b8 10 00    	movw   $0x10,%ax
  10040a:	8e d8          	movw   %ax,%ds
  10040c:	8e c0          	movw   %ax,%es
  10040e:	8e e0          	movw   %ax,%fs
  100410:	8e e8          	movw   %ax,%gs
  100412:	89 e0          	movl   %esp,%eax
  100414:	50             	pushl  %eax

00100415 <isr10h.1>:
  100415:	b8 48 2a 10 00 	movl   $0x102a48,%eax
  10041a:	ff d0          	call   *%eax
  10041c:	e9 f7 fc ff ff 	jmp    100118 <all_ints>

00100421 <isr11h>:
  100421:	6a 00          	pushl  $0x0
  100423:	6a 11          	pushl  $0x11
  100425:	0f a8          	pushl  %gs
  100427:	0f a0          	pushl  %fs
  100429:	06             	pushl  %es
  10042a:	1e             	pushl  %ds
  10042b:	60             	pusha  
  10042c:	66 b8 10 00    	movw   $0x10,%ax
  100430:	8e d8          	movw   %ax,%ds
  100432:	8e c0          	movw   %ax,%es
  100434:	8e e0          	movw   %ax,%fs
  100436:	8e e8          	movw   %ax,%gs
  100438:	89 e0          	movl   %esp,%eax
  10043a:	50             	pushl  %eax

0010043b <isr11h.1>:
  10043b:	b8 48 2a 10 00 	movl   $0x102a48,%eax
  100440:	ff d0          	call   *%eax
  100442:	e9 d1 fc ff ff 	jmp    100118 <all_ints>

00100447 <isr12h>:
  100447:	6a 00          	pushl  $0x0
  100449:	6a 12          	pushl  $0x12
  10044b:	0f a8          	pushl  %gs
  10044d:	0f a0          	pushl  %fs
  10044f:	06             	pushl  %es
  100450:	1e             	pushl  %ds
  100451:	60             	pusha  
  100452:	66 b8 10 00    	movw   $0x10,%ax
  100456:	8e d8          	movw   %ax,%ds
  100458:	8e c0          	movw   %ax,%es
  10045a:	8e e0          	movw   %ax,%fs
  10045c:	8e e8          	movw   %ax,%gs
  10045e:	89 e0          	movl   %esp,%eax
  100460:	50             	pushl  %eax

00100461 <isr12h.1>:
  100461:	b8 48 2a 10 00 	movl   $0x102a48,%eax
  100466:	ff d0          	call   *%eax
  100468:	e9 ab fc ff ff 	jmp    100118 <all_ints>

0010046d <isr13h>:
  10046d:	6a 00          	pushl  $0x0
  10046f:	6a 13          	pushl  $0x13
  100471:	0f a8          	pushl  %gs
  100473:	0f a0          	pushl  %fs
  100475:	06             	pushl  %es
  100476:	1e             	pushl  %ds
  100477:	60             	pusha  
  100478:	66 b8 10 00    	movw   $0x10,%ax
  10047c:	8e d8          	movw   %ax,%ds
  10047e:	8e c0          	movw   %ax,%es
  100480:	8e e0          	movw   %ax,%fs
  100482:	8e e8          	movw   %ax,%gs
  100484:	89 e0          	movl   %esp,%eax
  100486:	50             	pushl  %eax

00100487 <isr13h.1>:
  100487:	b8 48 2a 10 00 	movl   $0x102a48,%eax
  10048c:	ff d0          	call   *%eax
  10048e:	e9 85 fc ff ff 	jmp    100118 <all_ints>

00100493 <isr14h>:
  100493:	6a 00          	pushl  $0x0
  100495:	6a 14          	pushl  $0x14
  100497:	0f a8          	pushl  %gs
  100499:	0f a0          	pushl  %fs
  10049b:	06             	pushl  %es
  10049c:	1e             	pushl  %ds
  10049d:	60             	pusha  
  10049e:	66 b8 10 00    	movw   $0x10,%ax
  1004a2:	8e d8          	movw   %ax,%ds
  1004a4:	8e c0          	movw   %ax,%es
  1004a6:	8e e0          	movw   %ax,%fs
  1004a8:	8e e8          	movw   %ax,%gs
  1004aa:	89 e0          	movl   %esp,%eax
  1004ac:	50             	pushl  %eax

001004ad <isr14h.1>:
  1004ad:	b8 48 2a 10 00 	movl   $0x102a48,%eax
  1004b2:	ff d0          	call   *%eax
  1004b4:	e9 5f fc ff ff 	jmp    100118 <all_ints>

001004b9 <isr15h>:
  1004b9:	6a 00          	pushl  $0x0
  1004bb:	6a 15          	pushl  $0x15
  1004bd:	0f a8          	pushl  %gs
  1004bf:	0f a0          	pushl  %fs
  1004c1:	06             	pushl  %es
  1004c2:	1e             	pushl  %ds
  1004c3:	60             	pusha  
  1004c4:	66 b8 10 00    	movw   $0x10,%ax
  1004c8:	8e d8          	movw   %ax,%ds
  1004ca:	8e c0          	movw   %ax,%es
  1004cc:	8e e0          	movw   %ax,%fs
  1004ce:	8e e8          	movw   %ax,%gs
  1004d0:	89 e0          	movl   %esp,%eax
  1004d2:	50             	pushl  %eax

001004d3 <isr15h.1>:
  1004d3:	b8 48 2a 10 00 	movl   $0x102a48,%eax
  1004d8:	ff d0          	call   *%eax
  1004da:	e9 39 fc ff ff 	jmp    100118 <all_ints>

001004df <isr16h>:
  1004df:	6a 00          	pushl  $0x0
  1004e1:	6a 16          	pushl  $0x16
  1004e3:	0f a8          	pushl  %gs
  1004e5:	0f a0          	pushl  %fs
  1004e7:	06             	pushl  %es
  1004e8:	1e             	pushl  %ds
  1004e9:	60             	pusha  
  1004ea:	66 b8 10 00    	movw   $0x10,%ax
  1004ee:	8e d8          	movw   %ax,%ds
  1004f0:	8e c0          	movw   %ax,%es
  1004f2:	8e e0          	movw   %ax,%fs
  1004f4:	8e e8          	movw   %ax,%gs
  1004f6:	89 e0          	movl   %esp,%eax
  1004f8:	50             	pushl  %eax

001004f9 <isr16h.1>:
  1004f9:	b8 48 2a 10 00 	movl   $0x102a48,%eax
  1004fe:	ff d0          	call   *%eax
  100500:	e9 13 fc ff ff 	jmp    100118 <all_ints>

00100505 <isr17h>:
  100505:	6a 00          	pushl  $0x0
  100507:	6a 17          	pushl  $0x17
  100509:	0f a8          	pushl  %gs
  10050b:	0f a0          	pushl  %fs
  10050d:	06             	pushl  %es
  10050e:	1e             	pushl  %ds
  10050f:	60             	pusha  
  100510:	66 b8 10 00    	movw   $0x10,%ax
  100514:	8e d8          	movw   %ax,%ds
  100516:	8e c0          	movw   %ax,%es
  100518:	8e e0          	movw   %ax,%fs
  10051a:	8e e8          	movw   %ax,%gs
  10051c:	89 e0          	movl   %esp,%eax
  10051e:	50             	pushl  %eax

0010051f <isr17h.1>:
  10051f:	b8 48 2a 10 00 	movl   $0x102a48,%eax
  100524:	ff d0          	call   *%eax
  100526:	e9 ed fb ff ff 	jmp    100118 <all_ints>

0010052b <isr18h>:
  10052b:	6a 00          	pushl  $0x0
  10052d:	6a 18          	pushl  $0x18
  10052f:	0f a8          	pushl  %gs
  100531:	0f a0          	pushl  %fs
  100533:	06             	pushl  %es
  100534:	1e             	pushl  %ds
  100535:	60             	pusha  
  100536:	66 b8 10 00    	movw   $0x10,%ax
  10053a:	8e d8          	movw   %ax,%ds
  10053c:	8e c0          	movw   %ax,%es
  10053e:	8e e0          	movw   %ax,%fs
  100540:	8e e8          	movw   %ax,%gs
  100542:	89 e0          	movl   %esp,%eax
  100544:	50             	pushl  %eax

00100545 <isr18h.1>:
  100545:	b8 48 2a 10 00 	movl   $0x102a48,%eax
  10054a:	ff d0          	call   *%eax
  10054c:	e9 c7 fb ff ff 	jmp    100118 <all_ints>

00100551 <isr19h>:
  100551:	6a 00          	pushl  $0x0
  100553:	6a 19          	pushl  $0x19
  100555:	0f a8          	pushl  %gs
  100557:	0f a0          	pushl  %fs
  100559:	06             	pushl  %es
  10055a:	1e             	pushl  %ds
  10055b:	60             	pusha  
  10055c:	66 b8 10 00    	movw   $0x10,%ax
  100560:	8e d8          	movw   %ax,%ds
  100562:	8e c0          	movw   %ax,%es
  100564:	8e e0          	movw   %ax,%fs
  100566:	8e e8          	movw   %ax,%gs
  100568:	89 e0          	movl   %esp,%eax
  10056a:	50             	pushl  %eax

0010056b <isr19h.1>:
  10056b:	b8 48 2a 10 00 	movl   $0x102a48,%eax
  100570:	ff d0          	call   *%eax
  100572:	e9 a1 fb ff ff 	jmp    100118 <all_ints>

00100577 <isr1Ah>:
  100577:	6a 00          	pushl  $0x0
  100579:	6a 1a          	pushl  $0x1a
  10057b:	0f a8          	pushl  %gs
  10057d:	0f a0          	pushl  %fs
  10057f:	06             	pushl  %es
  100580:	1e             	pushl  %ds
  100581:	60             	pusha  
  100582:	66 b8 10 00    	movw   $0x10,%ax
  100586:	8e d8          	movw   %ax,%ds
  100588:	8e c0          	movw   %ax,%es
  10058a:	8e e0          	movw   %ax,%fs
  10058c:	8e e8          	movw   %ax,%gs
  10058e:	89 e0          	movl   %esp,%eax
  100590:	50             	pushl  %eax

00100591 <isr1Ah.1>:
  100591:	b8 48 2a 10 00 	movl   $0x102a48,%eax
  100596:	ff d0          	call   *%eax
  100598:	e9 7b fb ff ff 	jmp    100118 <all_ints>

0010059d <isr1Bh>:
  10059d:	6a 00          	pushl  $0x0
  10059f:	6a 1b          	pushl  $0x1b
  1005a1:	0f a8          	pushl  %gs
  1005a3:	0f a0          	pushl  %fs
  1005a5:	06             	pushl  %es
  1005a6:	1e             	pushl  %ds
  1005a7:	60             	pusha  
  1005a8:	66 b8 10 00    	movw   $0x10,%ax
  1005ac:	8e d8          	movw   %ax,%ds
  1005ae:	8e c0          	movw   %ax,%es
  1005b0:	8e e0          	movw   %ax,%fs
  1005b2:	8e e8          	movw   %ax,%gs
  1005b4:	89 e0          	movl   %esp,%eax
  1005b6:	50             	pushl  %eax

001005b7 <isr1Bh.1>:
  1005b7:	b8 48 2a 10 00 	movl   $0x102a48,%eax
  1005bc:	ff d0          	call   *%eax
  1005be:	e9 55 fb ff ff 	jmp    100118 <all_ints>

001005c3 <isr1Ch>:
  1005c3:	6a 00          	pushl  $0x0
  1005c5:	6a 1c          	pushl  $0x1c
  1005c7:	0f a8          	pushl  %gs
  1005c9:	0f a0          	pushl  %fs
  1005cb:	06             	pushl  %es
  1005cc:	1e             	pushl  %ds
  1005cd:	60             	pusha  
  1005ce:	66 b8 10 00    	movw   $0x10,%ax
  1005d2:	8e d8          	movw   %ax,%ds
  1005d4:	8e c0          	movw   %ax,%es
  1005d6:	8e e0          	movw   %ax,%fs
  1005d8:	8e e8          	movw   %ax,%gs
  1005da:	89 e0          	movl   %esp,%eax
  1005dc:	50             	pushl  %eax

001005dd <isr1Ch.1>:
  1005dd:	b8 48 2a 10 00 	movl   $0x102a48,%eax
  1005e2:	ff d0          	call   *%eax
  1005e4:	e9 2f fb ff ff 	jmp    100118 <all_ints>

001005e9 <isr1Dh>:
  1005e9:	6a 00          	pushl  $0x0
  1005eb:	6a 1d          	pushl  $0x1d
  1005ed:	0f a8          	pushl  %gs
  1005ef:	0f a0          	pushl  %fs
  1005f1:	06             	pushl  %es
  1005f2:	1e             	pushl  %ds
  1005f3:	60             	pusha  
  1005f4:	66 b8 10 00    	movw   $0x10,%ax
  1005f8:	8e d8          	movw   %ax,%ds
  1005fa:	8e c0          	movw   %ax,%es
  1005fc:	8e e0          	movw   %ax,%fs
  1005fe:	8e e8          	movw   %ax,%gs
  100600:	89 e0          	movl   %esp,%eax
  100602:	50             	pushl  %eax

00100603 <isr1Dh.1>:
  100603:	b8 48 2a 10 00 	movl   $0x102a48,%eax
  100608:	ff d0          	call   *%eax
  10060a:	e9 09 fb ff ff 	jmp    100118 <all_ints>

0010060f <isr1Eh>:
  10060f:	6a 00          	pushl  $0x0
  100611:	6a 1e          	pushl  $0x1e
  100613:	0f a8          	pushl  %gs
  100615:	0f a0          	pushl  %fs
  100617:	06             	pushl  %es
  100618:	1e             	pushl  %ds
  100619:	60             	pusha  
  10061a:	66 b8 10 00    	movw   $0x10,%ax
  10061e:	8e d8          	movw   %ax,%ds
  100620:	8e c0          	movw   %ax,%es
  100622:	8e e0          	movw   %ax,%fs
  100624:	8e e8          	movw   %ax,%gs
  100626:	89 e0          	movl   %esp,%eax
  100628:	50             	pushl  %eax

00100629 <isr1Eh.1>:
  100629:	b8 48 2a 10 00 	movl   $0x102a48,%eax
  10062e:	ff d0          	call   *%eax
  100630:	e9 e3 fa ff ff 	jmp    100118 <all_ints>

00100635 <isr1Fh>:
  100635:	6a 00          	pushl  $0x0
  100637:	6a 1f          	pushl  $0x1f
  100639:	0f a8          	pushl  %gs
  10063b:	0f a0          	pushl  %fs
  10063d:	06             	pushl  %es
  10063e:	1e             	pushl  %ds
  10063f:	60             	pusha  
  100640:	66 b8 10 00    	movw   $0x10,%ax
  100644:	8e d8          	movw   %ax,%ds
  100646:	8e c0          	movw   %ax,%es
  100648:	8e e0          	movw   %ax,%fs
  10064a:	8e e8          	movw   %ax,%gs
  10064c:	89 e0          	movl   %esp,%eax
  10064e:	50             	pushl  %eax

0010064f <isr1Fh.1>:
  10064f:	b8 48 2a 10 00 	movl   $0x102a48,%eax
  100654:	ff d0          	call   *%eax
  100656:	e9 bd fa ff ff 	jmp    100118 <all_ints>

0010065b <isr20h>:
  10065b:	6a 00          	pushl  $0x0
  10065d:	6a 20          	pushl  $0x20
  10065f:	0f a8          	pushl  %gs
  100661:	0f a0          	pushl  %fs
  100663:	06             	pushl  %es
  100664:	1e             	pushl  %ds
  100665:	60             	pusha  
  100666:	66 b8 10 00    	movw   $0x10,%ax
  10066a:	8e d8          	movw   %ax,%ds
  10066c:	8e c0          	movw   %ax,%es
  10066e:	8e e0          	movw   %ax,%fs
  100670:	8e e8          	movw   %ax,%gs
  100672:	89 e0          	movl   %esp,%eax
  100674:	50             	pushl  %eax

00100675 <isr20h.1>:
  100675:	b8 48 2a 10 00 	movl   $0x102a48,%eax
  10067a:	ff d0          	call   *%eax
  10067c:	e9 97 fa ff ff 	jmp    100118 <all_ints>

00100681 <isr21h>:
  100681:	6a 00          	pushl  $0x0
  100683:	6a 21          	pushl  $0x21
  100685:	0f a8          	pushl  %gs
  100687:	0f a0          	pushl  %fs
  100689:	06             	pushl  %es
  10068a:	1e             	pushl  %ds
  10068b:	60             	pusha  
  10068c:	66 b8 10 00    	movw   $0x10,%ax
  100690:	8e d8          	movw   %ax,%ds
  100692:	8e c0          	movw   %ax,%es
  100694:	8e e0          	movw   %ax,%fs
  100696:	8e e8          	movw   %ax,%gs
  100698:	89 e0          	movl   %esp,%eax
  10069a:	50             	pushl  %eax

0010069b <isr21h.1>:
  10069b:	b8 48 2a 10 00 	movl   $0x102a48,%eax
  1006a0:	ff d0          	call   *%eax
  1006a2:	e9 71 fa ff ff 	jmp    100118 <all_ints>

001006a7 <isr22h>:
  1006a7:	6a 00          	pushl  $0x0
  1006a9:	6a 22          	pushl  $0x22
  1006ab:	0f a8          	pushl  %gs
  1006ad:	0f a0          	pushl  %fs
  1006af:	06             	pushl  %es
  1006b0:	1e             	pushl  %ds
  1006b1:	60             	pusha  
  1006b2:	66 b8 10 00    	movw   $0x10,%ax
  1006b6:	8e d8          	movw   %ax,%ds
  1006b8:	8e c0          	movw   %ax,%es
  1006ba:	8e e0          	movw   %ax,%fs
  1006bc:	8e e8          	movw   %ax,%gs
  1006be:	89 e0          	movl   %esp,%eax
  1006c0:	50             	pushl  %eax

001006c1 <isr22h.1>:
  1006c1:	b8 48 2a 10 00 	movl   $0x102a48,%eax
  1006c6:	ff d0          	call   *%eax
  1006c8:	e9 4b fa ff ff 	jmp    100118 <all_ints>

001006cd <isr23h>:
  1006cd:	6a 00          	pushl  $0x0
  1006cf:	6a 23          	pushl  $0x23
  1006d1:	0f a8          	pushl  %gs
  1006d3:	0f a0          	pushl  %fs
  1006d5:	06             	pushl  %es
  1006d6:	1e             	pushl  %ds
  1006d7:	60             	pusha  
  1006d8:	66 b8 10 00    	movw   $0x10,%ax
  1006dc:	8e d8          	movw   %ax,%ds
  1006de:	8e c0          	movw   %ax,%es
  1006e0:	8e e0          	movw   %ax,%fs
  1006e2:	8e e8          	movw   %ax,%gs
  1006e4:	89 e0          	movl   %esp,%eax
  1006e6:	50             	pushl  %eax

001006e7 <isr23h.1>:
  1006e7:	b8 48 2a 10 00 	movl   $0x102a48,%eax
  1006ec:	ff d0          	call   *%eax
  1006ee:	e9 25 fa ff ff 	jmp    100118 <all_ints>

001006f3 <isr24h>:
  1006f3:	6a 00          	pushl  $0x0
  1006f5:	6a 24          	pushl  $0x24
  1006f7:	0f a8          	pushl  %gs
  1006f9:	0f a0          	pushl  %fs
  1006fb:	06             	pushl  %es
  1006fc:	1e             	pushl  %ds
  1006fd:	60             	pusha  
  1006fe:	66 b8 10 00    	movw   $0x10,%ax
  100702:	8e d8          	movw   %ax,%ds
  100704:	8e c0          	movw   %ax,%es
  100706:	8e e0          	movw   %ax,%fs
  100708:	8e e8          	movw   %ax,%gs
  10070a:	89 e0          	movl   %esp,%eax
  10070c:	50             	pushl  %eax

0010070d <isr24h.1>:
  10070d:	b8 48 2a 10 00 	movl   $0x102a48,%eax
  100712:	ff d0          	call   *%eax
  100714:	e9 ff f9 ff ff 	jmp    100118 <all_ints>

00100719 <isr25h>:
  100719:	6a 00          	pushl  $0x0
  10071b:	6a 25          	pushl  $0x25
  10071d:	0f a8          	pushl  %gs
  10071f:	0f a0          	pushl  %fs
  100721:	06             	pushl  %es
  100722:	1e             	pushl  %ds
  100723:	60             	pusha  
  100724:	66 b8 10 00    	movw   $0x10,%ax
  100728:	8e d8          	movw   %ax,%ds
  10072a:	8e c0          	movw   %ax,%es
  10072c:	8e e0          	movw   %ax,%fs
  10072e:	8e e8          	movw   %ax,%gs
  100730:	89 e0          	movl   %esp,%eax
  100732:	50             	pushl  %eax

00100733 <isr25h.1>:
  100733:	b8 48 2a 10 00 	movl   $0x102a48,%eax
  100738:	ff d0          	call   *%eax
  10073a:	e9 d9 f9 ff ff 	jmp    100118 <all_ints>

0010073f <isr26h>:
  10073f:	6a 00          	pushl  $0x0
  100741:	6a 26          	pushl  $0x26
  100743:	0f a8          	pushl  %gs
  100745:	0f a0          	pushl  %fs
  100747:	06             	pushl  %es
  100748:	1e             	pushl  %ds
  100749:	60             	pusha  
  10074a:	66 b8 10 00    	movw   $0x10,%ax
  10074e:	8e d8          	movw   %ax,%ds
  100750:	8e c0          	movw   %ax,%es
  100752:	8e e0          	movw   %ax,%fs
  100754:	8e e8          	movw   %ax,%gs
  100756:	89 e0          	movl   %esp,%eax
  100758:	50             	pushl  %eax

00100759 <isr26h.1>:
  100759:	b8 48 2a 10 00 	movl   $0x102a48,%eax
  10075e:	ff d0          	call   *%eax
  100760:	e9 b3 f9 ff ff 	jmp    100118 <all_ints>

00100765 <isr27h>:
  100765:	6a 00          	pushl  $0x0
  100767:	6a 27          	pushl  $0x27
  100769:	0f a8          	pushl  %gs
  10076b:	0f a0          	pushl  %fs
  10076d:	06             	pushl  %es
  10076e:	1e             	pushl  %ds
  10076f:	60             	pusha  
  100770:	66 b8 10 00    	movw   $0x10,%ax
  100774:	8e d8          	movw   %ax,%ds
  100776:	8e c0          	movw   %ax,%es
  100778:	8e e0          	movw   %ax,%fs
  10077a:	8e e8          	movw   %ax,%gs
  10077c:	89 e0          	movl   %esp,%eax
  10077e:	50             	pushl  %eax

0010077f <isr27h.1>:
  10077f:	b8 48 2a 10 00 	movl   $0x102a48,%eax
  100784:	ff d0          	call   *%eax
  100786:	e9 8d f9 ff ff 	jmp    100118 <all_ints>

0010078b <isr28h>:
  10078b:	6a 00          	pushl  $0x0
  10078d:	6a 28          	pushl  $0x28
  10078f:	0f a8          	pushl  %gs
  100791:	0f a0          	pushl  %fs
  100793:	06             	pushl  %es
  100794:	1e             	pushl  %ds
  100795:	60             	pusha  
  100796:	66 b8 10 00    	movw   $0x10,%ax
  10079a:	8e d8          	movw   %ax,%ds
  10079c:	8e c0          	movw   %ax,%es
  10079e:	8e e0          	movw   %ax,%fs
  1007a0:	8e e8          	movw   %ax,%gs
  1007a2:	89 e0          	movl   %esp,%eax
  1007a4:	50             	pushl  %eax

001007a5 <isr28h.1>:
  1007a5:	b8 48 2a 10 00 	movl   $0x102a48,%eax
  1007aa:	ff d0          	call   *%eax
  1007ac:	e9 67 f9 ff ff 	jmp    100118 <all_ints>

001007b1 <isr29h>:
  1007b1:	6a 00          	pushl  $0x0
  1007b3:	6a 29          	pushl  $0x29
  1007b5:	0f a8          	pushl  %gs
  1007b7:	0f a0          	pushl  %fs
  1007b9:	06             	pushl  %es
  1007ba:	1e             	pushl  %ds
  1007bb:	60             	pusha  
  1007bc:	66 b8 10 00    	movw   $0x10,%ax
  1007c0:	8e d8          	movw   %ax,%ds
  1007c2:	8e c0          	movw   %ax,%es
  1007c4:	8e e0          	movw   %ax,%fs
  1007c6:	8e e8          	movw   %ax,%gs
  1007c8:	89 e0          	movl   %esp,%eax
  1007ca:	50             	pushl  %eax

001007cb <isr29h.1>:
  1007cb:	b8 48 2a 10 00 	movl   $0x102a48,%eax
  1007d0:	ff d0          	call   *%eax
  1007d2:	e9 41 f9 ff ff 	jmp    100118 <all_ints>

001007d7 <isr2Ah>:
  1007d7:	6a 00          	pushl  $0x0
  1007d9:	6a 2a          	pushl  $0x2a
  1007db:	0f a8          	pushl  %gs
  1007dd:	0f a0          	pushl  %fs
  1007df:	06             	pushl  %es
  1007e0:	1e             	pushl  %ds
  1007e1:	60             	pusha  
  1007e2:	66 b8 10 00    	movw   $0x10,%ax
  1007e6:	8e d8          	movw   %ax,%ds
  1007e8:	8e c0          	movw   %ax,%es
  1007ea:	8e e0          	movw   %ax,%fs
  1007ec:	8e e8          	movw   %ax,%gs
  1007ee:	89 e0          	movl   %esp,%eax
  1007f0:	50             	pushl  %eax

001007f1 <isr2Ah.1>:
  1007f1:	b8 48 2a 10 00 	movl   $0x102a48,%eax
  1007f6:	ff d0          	call   *%eax
  1007f8:	e9 1b f9 ff ff 	jmp    100118 <all_ints>

001007fd <isr2Bh>:
  1007fd:	6a 00          	pushl  $0x0
  1007ff:	6a 2b          	pushl  $0x2b
  100801:	0f a8          	pushl  %gs
  100803:	0f a0          	pushl  %fs
  100805:	06             	pushl  %es
  100806:	1e             	pushl  %ds
  100807:	60             	pusha  
  100808:	66 b8 10 00    	movw   $0x10,%ax
  10080c:	8e d8          	movw   %ax,%ds
  10080e:	8e c0          	movw   %ax,%es
  100810:	8e e0          	movw   %ax,%fs
  100812:	8e e8          	movw   %ax,%gs
  100814:	89 e0          	movl   %esp,%eax
  100816:	50             	pushl  %eax

00100817 <isr2Bh.1>:
  100817:	b8 48 2a 10 00 	movl   $0x102a48,%eax
  10081c:	ff d0          	call   *%eax
  10081e:	e9 f5 f8 ff ff 	jmp    100118 <all_ints>

00100823 <isr2Ch>:
  100823:	6a 00          	pushl  $0x0
  100825:	6a 2c          	pushl  $0x2c
  100827:	0f a8          	pushl  %gs
  100829:	0f a0          	pushl  %fs
  10082b:	06             	pushl  %es
  10082c:	1e             	pushl  %ds
  10082d:	60             	pusha  
  10082e:	66 b8 10 00    	movw   $0x10,%ax
  100832:	8e d8          	movw   %ax,%ds
  100834:	8e c0          	movw   %ax,%es
  100836:	8e e0          	movw   %ax,%fs
  100838:	8e e8          	movw   %ax,%gs
  10083a:	89 e0          	movl   %esp,%eax
  10083c:	50             	pushl  %eax

0010083d <isr2Ch.1>:
  10083d:	b8 48 2a 10 00 	movl   $0x102a48,%eax
  100842:	ff d0          	call   *%eax
  100844:	e9 cf f8 ff ff 	jmp    100118 <all_ints>

00100849 <isr2Dh>:
  100849:	6a 00          	pushl  $0x0
  10084b:	6a 2d          	pushl  $0x2d
  10084d:	0f a8          	pushl  %gs
  10084f:	0f a0          	pushl  %fs
  100851:	06             	pushl  %es
  100852:	1e             	pushl  %ds
  100853:	60             	pusha  
  100854:	66 b8 10 00    	movw   $0x10,%ax
  100858:	8e d8          	movw   %ax,%ds
  10085a:	8e c0          	movw   %ax,%es
  10085c:	8e e0          	movw   %ax,%fs
  10085e:	8e e8          	movw   %ax,%gs
  100860:	89 e0          	movl   %esp,%eax
  100862:	50             	pushl  %eax

00100863 <isr2Dh.1>:
  100863:	b8 48 2a 10 00 	movl   $0x102a48,%eax
  100868:	ff d0          	call   *%eax
  10086a:	e9 a9 f8 ff ff 	jmp    100118 <all_ints>

0010086f <isr2Eh>:
  10086f:	6a 00          	pushl  $0x0
  100871:	6a 2e          	pushl  $0x2e
  100873:	0f a8          	pushl  %gs
  100875:	0f a0          	pushl  %fs
  100877:	06             	pushl  %es
  100878:	1e             	pushl  %ds
  100879:	60             	pusha  
  10087a:	66 b8 10 00    	movw   $0x10,%ax
  10087e:	8e d8          	movw   %ax,%ds
  100880:	8e c0          	movw   %ax,%es
  100882:	8e e0          	movw   %ax,%fs
  100884:	8e e8          	movw   %ax,%gs
  100886:	89 e0          	movl   %esp,%eax
  100888:	50             	pushl  %eax

00100889 <isr2Eh.1>:
  100889:	b8 48 2a 10 00 	movl   $0x102a48,%eax
  10088e:	ff d0          	call   *%eax
  100890:	e9 83 f8 ff ff 	jmp    100118 <all_ints>

00100895 <isr2Fh>:
  100895:	6a 00          	pushl  $0x0
  100897:	6a 2f          	pushl  $0x2f
  100899:	0f a8          	pushl  %gs
  10089b:	0f a0          	pushl  %fs
  10089d:	06             	pushl  %es
  10089e:	1e             	pushl  %ds
  10089f:	60             	pusha  
  1008a0:	66 b8 10 00    	movw   $0x10,%ax
  1008a4:	8e d8          	movw   %ax,%ds
  1008a6:	8e c0          	movw   %ax,%es
  1008a8:	8e e0          	movw   %ax,%fs
  1008aa:	8e e8          	movw   %ax,%gs
  1008ac:	89 e0          	movl   %esp,%eax
  1008ae:	50             	pushl  %eax

001008af <isr2Fh.1>:
  1008af:	b8 48 2a 10 00 	movl   $0x102a48,%eax
  1008b4:	ff d0          	call   *%eax
  1008b6:	e9 5d f8 ff ff 	jmp    100118 <all_ints>

001008bb <isr30h>:
  1008bb:	6a 00          	pushl  $0x0
  1008bd:	6a 30          	pushl  $0x30
  1008bf:	0f a8          	pushl  %gs
  1008c1:	0f a0          	pushl  %fs
  1008c3:	06             	pushl  %es
  1008c4:	1e             	pushl  %ds
  1008c5:	60             	pusha  
  1008c6:	66 b8 10 00    	movw   $0x10,%ax
  1008ca:	8e d8          	movw   %ax,%ds
  1008cc:	8e c0          	movw   %ax,%es
  1008ce:	8e e0          	movw   %ax,%fs
  1008d0:	8e e8          	movw   %ax,%gs
  1008d2:	89 e0          	movl   %esp,%eax
  1008d4:	50             	pushl  %eax

001008d5 <isr30h.1>:
  1008d5:	b8 48 2a 10 00 	movl   $0x102a48,%eax
  1008da:	ff d0          	call   *%eax
  1008dc:	e9 37 f8 ff ff 	jmp    100118 <all_ints>

001008e1 <isr49>:
  1008e1:	6a 00          	pushl  $0x0
  1008e3:	6a 31          	pushl  $0x31
  1008e5:	0f a8          	pushl  %gs
  1008e7:	0f a0          	pushl  %fs
  1008e9:	06             	pushl  %es
  1008ea:	1e             	pushl  %ds
  1008eb:	60             	pusha  
  1008ec:	66 b8 10 00    	movw   $0x10,%ax
  1008f0:	8e d8          	movw   %ax,%ds
  1008f2:	8e c0          	movw   %ax,%es
  1008f4:	8e e0          	movw   %ax,%fs
  1008f6:	8e e8          	movw   %ax,%gs
  1008f8:	89 e0          	movl   %esp,%eax
  1008fa:	50             	pushl  %eax

001008fb <isr49.1>:
  1008fb:	b8 48 2a 10 00 	movl   $0x102a48,%eax
  100900:	ff d0          	call   *%eax
  100902:	e9 11 f8 ff ff 	jmp    100118 <all_ints>

00100907 <isr50>:
  100907:	6a 00          	pushl  $0x0
  100909:	6a 32          	pushl  $0x32
  10090b:	0f a8          	pushl  %gs
  10090d:	0f a0          	pushl  %fs
  10090f:	06             	pushl  %es
  100910:	1e             	pushl  %ds
  100911:	60             	pusha  
  100912:	66 b8 10 00    	movw   $0x10,%ax
  100916:	8e d8          	movw   %ax,%ds
  100918:	8e c0          	movw   %ax,%es
  10091a:	8e e0          	movw   %ax,%fs
  10091c:	8e e8          	movw   %ax,%gs
  10091e:	89 e0          	movl   %esp,%eax
  100920:	50             	pushl  %eax

00100921 <isr50.1>:
  100921:	b8 48 2a 10 00 	movl   $0x102a48,%eax
  100926:	ff d0          	call   *%eax
  100928:	e9 eb f7 ff ff 	jmp    100118 <all_ints>

0010092d <isr51>:
  10092d:	6a 00          	pushl  $0x0
  10092f:	6a 33          	pushl  $0x33
  100931:	0f a8          	pushl  %gs
  100933:	0f a0          	pushl  %fs
  100935:	06             	pushl  %es
  100936:	1e             	pushl  %ds
  100937:	60             	pusha  
  100938:	66 b8 10 00    	movw   $0x10,%ax
  10093c:	8e d8          	movw   %ax,%ds
  10093e:	8e c0          	movw   %ax,%es
  100940:	8e e0          	movw   %ax,%fs
  100942:	8e e8          	movw   %ax,%gs
  100944:	89 e0          	movl   %esp,%eax
  100946:	50             	pushl  %eax

00100947 <isr51.1>:
  100947:	b8 48 2a 10 00 	movl   $0x102a48,%eax
  10094c:	ff d0          	call   *%eax
  10094e:	e9 c5 f7 ff ff 	jmp    100118 <all_ints>

00100953 <isr52>:
  100953:	6a 00          	pushl  $0x0
  100955:	6a 34          	pushl  $0x34
  100957:	0f a8          	pushl  %gs
  100959:	0f a0          	pushl  %fs
  10095b:	06             	pushl  %es
  10095c:	1e             	pushl  %ds
  10095d:	60             	pusha  
  10095e:	66 b8 10 00    	movw   $0x10,%ax
  100962:	8e d8          	movw   %ax,%ds
  100964:	8e c0          	movw   %ax,%es
  100966:	8e e0          	movw   %ax,%fs
  100968:	8e e8          	movw   %ax,%gs
  10096a:	89 e0          	movl   %esp,%eax
  10096c:	50             	pushl  %eax

0010096d <isr52.1>:
  10096d:	b8 48 2a 10 00 	movl   $0x102a48,%eax
  100972:	ff d0          	call   *%eax
  100974:	e9 9f f7 ff ff 	jmp    100118 <all_ints>

00100979 <isr53>:
  100979:	6a 00          	pushl  $0x0
  10097b:	6a 35          	pushl  $0x35
  10097d:	0f a8          	pushl  %gs
  10097f:	0f a0          	pushl  %fs
  100981:	06             	pushl  %es
  100982:	1e             	pushl  %ds
  100983:	60             	pusha  
  100984:	66 b8 10 00    	movw   $0x10,%ax
  100988:	8e d8          	movw   %ax,%ds
  10098a:	8e c0          	movw   %ax,%es
  10098c:	8e e0          	movw   %ax,%fs
  10098e:	8e e8          	movw   %ax,%gs
  100990:	89 e0          	movl   %esp,%eax
  100992:	50             	pushl  %eax

00100993 <isr53.1>:
  100993:	b8 48 2a 10 00 	movl   $0x102a48,%eax
  100998:	ff d0          	call   *%eax
  10099a:	e9 79 f7 ff ff 	jmp    100118 <all_ints>

0010099f <isr54>:
  10099f:	6a 00          	pushl  $0x0
  1009a1:	6a 36          	pushl  $0x36
  1009a3:	0f a8          	pushl  %gs
  1009a5:	0f a0          	pushl  %fs
  1009a7:	06             	pushl  %es
  1009a8:	1e             	pushl  %ds
  1009a9:	60             	pusha  
  1009aa:	66 b8 10 00    	movw   $0x10,%ax
  1009ae:	8e d8          	movw   %ax,%ds
  1009b0:	8e c0          	movw   %ax,%es
  1009b2:	8e e0          	movw   %ax,%fs
  1009b4:	8e e8          	movw   %ax,%gs
  1009b6:	89 e0          	movl   %esp,%eax
  1009b8:	50             	pushl  %eax

001009b9 <isr54.1>:
  1009b9:	b8 48 2a 10 00 	movl   $0x102a48,%eax
  1009be:	ff d0          	call   *%eax
  1009c0:	e9 53 f7 ff ff 	jmp    100118 <all_ints>

001009c5 <isr55>:
  1009c5:	6a 00          	pushl  $0x0
  1009c7:	6a 37          	pushl  $0x37
  1009c9:	0f a8          	pushl  %gs
  1009cb:	0f a0          	pushl  %fs
  1009cd:	06             	pushl  %es
  1009ce:	1e             	pushl  %ds
  1009cf:	60             	pusha  
  1009d0:	66 b8 10 00    	movw   $0x10,%ax
  1009d4:	8e d8          	movw   %ax,%ds
  1009d6:	8e c0          	movw   %ax,%es
  1009d8:	8e e0          	movw   %ax,%fs
  1009da:	8e e8          	movw   %ax,%gs
  1009dc:	89 e0          	movl   %esp,%eax
  1009de:	50             	pushl  %eax

001009df <isr55.1>:
  1009df:	b8 48 2a 10 00 	movl   $0x102a48,%eax
  1009e4:	ff d0          	call   *%eax
  1009e6:	e9 2d f7 ff ff 	jmp    100118 <all_ints>

001009eb <isr56>:
  1009eb:	6a 00          	pushl  $0x0
  1009ed:	6a 38          	pushl  $0x38
  1009ef:	0f a8          	pushl  %gs
  1009f1:	0f a0          	pushl  %fs
  1009f3:	06             	pushl  %es
  1009f4:	1e             	pushl  %ds
  1009f5:	60             	pusha  
  1009f6:	66 b8 10 00    	movw   $0x10,%ax
  1009fa:	8e d8          	movw   %ax,%ds
  1009fc:	8e c0          	movw   %ax,%es
  1009fe:	8e e0          	movw   %ax,%fs
  100a00:	8e e8          	movw   %ax,%gs
  100a02:	89 e0          	movl   %esp,%eax
  100a04:	50             	pushl  %eax

00100a05 <isr56.1>:
  100a05:	b8 48 2a 10 00 	movl   $0x102a48,%eax
  100a0a:	ff d0          	call   *%eax
  100a0c:	e9 07 f7 ff ff 	jmp    100118 <all_ints>

00100a11 <isr57>:
  100a11:	6a 00          	pushl  $0x0
  100a13:	6a 39          	pushl  $0x39
  100a15:	0f a8          	pushl  %gs
  100a17:	0f a0          	pushl  %fs
  100a19:	06             	pushl  %es
  100a1a:	1e             	pushl  %ds
  100a1b:	60             	pusha  
  100a1c:	66 b8 10 00    	movw   $0x10,%ax
  100a20:	8e d8          	movw   %ax,%ds
  100a22:	8e c0          	movw   %ax,%es
  100a24:	8e e0          	movw   %ax,%fs
  100a26:	8e e8          	movw   %ax,%gs
  100a28:	89 e0          	movl   %esp,%eax
  100a2a:	50             	pushl  %eax

00100a2b <isr57.1>:
  100a2b:	b8 48 2a 10 00 	movl   $0x102a48,%eax
  100a30:	ff d0          	call   *%eax
  100a32:	e9 e1 f6 ff ff 	jmp    100118 <all_ints>

00100a37 <isr58>:
  100a37:	6a 00          	pushl  $0x0
  100a39:	6a 3a          	pushl  $0x3a
  100a3b:	0f a8          	pushl  %gs
  100a3d:	0f a0          	pushl  %fs
  100a3f:	06             	pushl  %es
  100a40:	1e             	pushl  %ds
  100a41:	60             	pusha  
  100a42:	66 b8 10 00    	movw   $0x10,%ax
  100a46:	8e d8          	movw   %ax,%ds
  100a48:	8e c0          	movw   %ax,%es
  100a4a:	8e e0          	movw   %ax,%fs
  100a4c:	8e e8          	movw   %ax,%gs
  100a4e:	89 e0          	movl   %esp,%eax
  100a50:	50             	pushl  %eax

00100a51 <isr58.1>:
  100a51:	b8 48 2a 10 00 	movl   $0x102a48,%eax
  100a56:	ff d0          	call   *%eax
  100a58:	e9 bb f6 ff ff 	jmp    100118 <all_ints>

00100a5d <isr59>:
  100a5d:	6a 00          	pushl  $0x0
  100a5f:	6a 3b          	pushl  $0x3b
  100a61:	0f a8          	pushl  %gs
  100a63:	0f a0          	pushl  %fs
  100a65:	06             	pushl  %es
  100a66:	1e             	pushl  %ds
  100a67:	60             	pusha  
  100a68:	66 b8 10 00    	movw   $0x10,%ax
  100a6c:	8e d8          	movw   %ax,%ds
  100a6e:	8e c0          	movw   %ax,%es
  100a70:	8e e0          	movw   %ax,%fs
  100a72:	8e e8          	movw   %ax,%gs
  100a74:	89 e0          	movl   %esp,%eax
  100a76:	50             	pushl  %eax

00100a77 <isr59.1>:
  100a77:	b8 48 2a 10 00 	movl   $0x102a48,%eax
  100a7c:	ff d0          	call   *%eax
  100a7e:	e9 95 f6 ff ff 	jmp    100118 <all_ints>

00100a83 <isr60>:
  100a83:	6a 00          	pushl  $0x0
  100a85:	6a 3c          	pushl  $0x3c
  100a87:	0f a8          	pushl  %gs
  100a89:	0f a0          	pushl  %fs
  100a8b:	06             	pushl  %es
  100a8c:	1e             	pushl  %ds
  100a8d:	60             	pusha  
  100a8e:	66 b8 10 00    	movw   $0x10,%ax
  100a92:	8e d8          	movw   %ax,%ds
  100a94:	8e c0          	movw   %ax,%es
  100a96:	8e e0          	movw   %ax,%fs
  100a98:	8e e8          	movw   %ax,%gs
  100a9a:	89 e0          	movl   %esp,%eax
  100a9c:	50             	pushl  %eax

00100a9d <isr60.1>:
  100a9d:	b8 48 2a 10 00 	movl   $0x102a48,%eax
  100aa2:	ff d0          	call   *%eax
  100aa4:	e9 6f f6 ff ff 	jmp    100118 <all_ints>

00100aa9 <isr61>:
  100aa9:	6a 00          	pushl  $0x0
  100aab:	6a 3d          	pushl  $0x3d
  100aad:	0f a8          	pushl  %gs
  100aaf:	0f a0          	pushl  %fs
  100ab1:	06             	pushl  %es
  100ab2:	1e             	pushl  %ds
  100ab3:	60             	pusha  
  100ab4:	66 b8 10 00    	movw   $0x10,%ax
  100ab8:	8e d8          	movw   %ax,%ds
  100aba:	8e c0          	movw   %ax,%es
  100abc:	8e e0          	movw   %ax,%fs
  100abe:	8e e8          	movw   %ax,%gs
  100ac0:	89 e0          	movl   %esp,%eax
  100ac2:	50             	pushl  %eax

00100ac3 <isr61.1>:
  100ac3:	b8 48 2a 10 00 	movl   $0x102a48,%eax
  100ac8:	ff d0          	call   *%eax
  100aca:	e9 49 f6 ff ff 	jmp    100118 <all_ints>

00100acf <isr62>:
  100acf:	6a 00          	pushl  $0x0
  100ad1:	6a 3e          	pushl  $0x3e
  100ad3:	0f a8          	pushl  %gs
  100ad5:	0f a0          	pushl  %fs
  100ad7:	06             	pushl  %es
  100ad8:	1e             	pushl  %ds
  100ad9:	60             	pusha  
  100ada:	66 b8 10 00    	movw   $0x10,%ax
  100ade:	8e d8          	movw   %ax,%ds
  100ae0:	8e c0          	movw   %ax,%es
  100ae2:	8e e0          	movw   %ax,%fs
  100ae4:	8e e8          	movw   %ax,%gs
  100ae6:	89 e0          	movl   %esp,%eax
  100ae8:	50             	pushl  %eax

00100ae9 <isr62.1>:
  100ae9:	b8 48 2a 10 00 	movl   $0x102a48,%eax
  100aee:	ff d0          	call   *%eax
  100af0:	e9 23 f6 ff ff 	jmp    100118 <all_ints>

00100af5 <isr63>:
  100af5:	6a 00          	pushl  $0x0
  100af7:	6a 3f          	pushl  $0x3f
  100af9:	0f a8          	pushl  %gs
  100afb:	0f a0          	pushl  %fs
  100afd:	06             	pushl  %es
  100afe:	1e             	pushl  %ds
  100aff:	60             	pusha  
  100b00:	66 b8 10 00    	movw   $0x10,%ax
  100b04:	8e d8          	movw   %ax,%ds
  100b06:	8e c0          	movw   %ax,%es
  100b08:	8e e0          	movw   %ax,%fs
  100b0a:	8e e8          	movw   %ax,%gs
  100b0c:	89 e0          	movl   %esp,%eax
  100b0e:	50             	pushl  %eax

00100b0f <isr63.1>:
  100b0f:	b8 48 2a 10 00 	movl   $0x102a48,%eax
  100b14:	ff d0          	call   *%eax
  100b16:	e9 fd f5 ff ff 	jmp    100118 <all_ints>

00100b1b <isr64>:
  100b1b:	6a 00          	pushl  $0x0
  100b1d:	6a 40          	pushl  $0x40
  100b1f:	0f a8          	pushl  %gs
  100b21:	0f a0          	pushl  %fs
  100b23:	06             	pushl  %es
  100b24:	1e             	pushl  %ds
  100b25:	60             	pusha  
  100b26:	66 b8 10 00    	movw   $0x10,%ax
  100b2a:	8e d8          	movw   %ax,%ds
  100b2c:	8e c0          	movw   %ax,%es
  100b2e:	8e e0          	movw   %ax,%fs
  100b30:	8e e8          	movw   %ax,%gs
  100b32:	89 e0          	movl   %esp,%eax
  100b34:	50             	pushl  %eax

00100b35 <isr64.1>:
  100b35:	b8 48 2a 10 00 	movl   $0x102a48,%eax
  100b3a:	ff d0          	call   *%eax
  100b3c:	e9 d7 f5 ff ff 	jmp    100118 <all_ints>

00100b41 <isr65>:
  100b41:	6a 00          	pushl  $0x0
  100b43:	6a 41          	pushl  $0x41
  100b45:	0f a8          	pushl  %gs
  100b47:	0f a0          	pushl  %fs
  100b49:	06             	pushl  %es
  100b4a:	1e             	pushl  %ds
  100b4b:	60             	pusha  
  100b4c:	66 b8 10 00    	movw   $0x10,%ax
  100b50:	8e d8          	movw   %ax,%ds
  100b52:	8e c0          	movw   %ax,%es
  100b54:	8e e0          	movw   %ax,%fs
  100b56:	8e e8          	movw   %ax,%gs
  100b58:	89 e0          	movl   %esp,%eax
  100b5a:	50             	pushl  %eax

00100b5b <isr65.1>:
  100b5b:	b8 48 2a 10 00 	movl   $0x102a48,%eax
  100b60:	ff d0          	call   *%eax
  100b62:	e9 b1 f5 ff ff 	jmp    100118 <all_ints>

00100b67 <isr66>:
  100b67:	6a 00          	pushl  $0x0
  100b69:	6a 42          	pushl  $0x42
  100b6b:	0f a8          	pushl  %gs
  100b6d:	0f a0          	pushl  %fs
  100b6f:	06             	pushl  %es
  100b70:	1e             	pushl  %ds
  100b71:	60             	pusha  
  100b72:	66 b8 10 00    	movw   $0x10,%ax
  100b76:	8e d8          	movw   %ax,%ds
  100b78:	8e c0          	movw   %ax,%es
  100b7a:	8e e0          	movw   %ax,%fs
  100b7c:	8e e8          	movw   %ax,%gs
  100b7e:	89 e0          	movl   %esp,%eax
  100b80:	50             	pushl  %eax

00100b81 <isr66.1>:
  100b81:	b8 48 2a 10 00 	movl   $0x102a48,%eax
  100b86:	ff d0          	call   *%eax
  100b88:	e9 8b f5 ff ff 	jmp    100118 <all_ints>

00100b8d <isr67>:
  100b8d:	6a 00          	pushl  $0x0
  100b8f:	6a 43          	pushl  $0x43
  100b91:	0f a8          	pushl  %gs
  100b93:	0f a0          	pushl  %fs
  100b95:	06             	pushl  %es
  100b96:	1e             	pushl  %ds
  100b97:	60             	pusha  
  100b98:	66 b8 10 00    	movw   $0x10,%ax
  100b9c:	8e d8          	movw   %ax,%ds
  100b9e:	8e c0          	movw   %ax,%es
  100ba0:	8e e0          	movw   %ax,%fs
  100ba2:	8e e8          	movw   %ax,%gs
  100ba4:	89 e0          	movl   %esp,%eax
  100ba6:	50             	pushl  %eax

00100ba7 <isr67.1>:
  100ba7:	b8 48 2a 10 00 	movl   $0x102a48,%eax
  100bac:	ff d0          	call   *%eax
  100bae:	e9 65 f5 ff ff 	jmp    100118 <all_ints>

00100bb3 <isr68>:
  100bb3:	6a 00          	pushl  $0x0
  100bb5:	6a 44          	pushl  $0x44
  100bb7:	0f a8          	pushl  %gs
  100bb9:	0f a0          	pushl  %fs
  100bbb:	06             	pushl  %es
  100bbc:	1e             	pushl  %ds
  100bbd:	60             	pusha  
  100bbe:	66 b8 10 00    	movw   $0x10,%ax
  100bc2:	8e d8          	movw   %ax,%ds
  100bc4:	8e c0          	movw   %ax,%es
  100bc6:	8e e0          	movw   %ax,%fs
  100bc8:	8e e8          	movw   %ax,%gs
  100bca:	89 e0          	movl   %esp,%eax
  100bcc:	50             	pushl  %eax

00100bcd <isr68.1>:
  100bcd:	b8 48 2a 10 00 	movl   $0x102a48,%eax
  100bd2:	ff d0          	call   *%eax
  100bd4:	e9 3f f5 ff ff 	jmp    100118 <all_ints>

00100bd9 <isr69>:
  100bd9:	6a 00          	pushl  $0x0
  100bdb:	6a 45          	pushl  $0x45
  100bdd:	0f a8          	pushl  %gs
  100bdf:	0f a0          	pushl  %fs
  100be1:	06             	pushl  %es
  100be2:	1e             	pushl  %ds
  100be3:	60             	pusha  
  100be4:	66 b8 10 00    	movw   $0x10,%ax
  100be8:	8e d8          	movw   %ax,%ds
  100bea:	8e c0          	movw   %ax,%es
  100bec:	8e e0          	movw   %ax,%fs
  100bee:	8e e8          	movw   %ax,%gs
  100bf0:	89 e0          	movl   %esp,%eax
  100bf2:	50             	pushl  %eax

00100bf3 <isr69.1>:
  100bf3:	b8 48 2a 10 00 	movl   $0x102a48,%eax
  100bf8:	ff d0          	call   *%eax
  100bfa:	e9 19 f5 ff ff 	jmp    100118 <all_ints>

00100bff <isr70>:
  100bff:	6a 00          	pushl  $0x0
  100c01:	6a 46          	pushl  $0x46
  100c03:	0f a8          	pushl  %gs
  100c05:	0f a0          	pushl  %fs
  100c07:	06             	pushl  %es
  100c08:	1e             	pushl  %ds
  100c09:	60             	pusha  
  100c0a:	66 b8 10 00    	movw   $0x10,%ax
  100c0e:	8e d8          	movw   %ax,%ds
  100c10:	8e c0          	movw   %ax,%es
  100c12:	8e e0          	movw   %ax,%fs
  100c14:	8e e8          	movw   %ax,%gs
  100c16:	89 e0          	movl   %esp,%eax
  100c18:	50             	pushl  %eax

00100c19 <isr70.1>:
  100c19:	b8 48 2a 10 00 	movl   $0x102a48,%eax
  100c1e:	ff d0          	call   *%eax
  100c20:	e9 f3 f4 ff ff 	jmp    100118 <all_ints>

00100c25 <isr71>:
  100c25:	6a 00          	pushl  $0x0
  100c27:	6a 47          	pushl  $0x47
  100c29:	0f a8          	pushl  %gs
  100c2b:	0f a0          	pushl  %fs
  100c2d:	06             	pushl  %es
  100c2e:	1e             	pushl  %ds
  100c2f:	60             	pusha  
  100c30:	66 b8 10 00    	movw   $0x10,%ax
  100c34:	8e d8          	movw   %ax,%ds
  100c36:	8e c0          	movw   %ax,%es
  100c38:	8e e0          	movw   %ax,%fs
  100c3a:	8e e8          	movw   %ax,%gs
  100c3c:	89 e0          	movl   %esp,%eax
  100c3e:	50             	pushl  %eax

00100c3f <isr71.1>:
  100c3f:	b8 48 2a 10 00 	movl   $0x102a48,%eax
  100c44:	ff d0          	call   *%eax
  100c46:	e9 cd f4 ff ff 	jmp    100118 <all_ints>

00100c4b <isr72>:
  100c4b:	6a 00          	pushl  $0x0
  100c4d:	6a 48          	pushl  $0x48
  100c4f:	0f a8          	pushl  %gs
  100c51:	0f a0          	pushl  %fs
  100c53:	06             	pushl  %es
  100c54:	1e             	pushl  %ds
  100c55:	60             	pusha  
  100c56:	66 b8 10 00    	movw   $0x10,%ax
  100c5a:	8e d8          	movw   %ax,%ds
  100c5c:	8e c0          	movw   %ax,%es
  100c5e:	8e e0          	movw   %ax,%fs
  100c60:	8e e8          	movw   %ax,%gs
  100c62:	89 e0          	movl   %esp,%eax
  100c64:	50             	pushl  %eax

00100c65 <isr72.1>:
  100c65:	b8 48 2a 10 00 	movl   $0x102a48,%eax
  100c6a:	ff d0          	call   *%eax
  100c6c:	e9 a7 f4 ff ff 	jmp    100118 <all_ints>

00100c71 <isr73>:
  100c71:	6a 00          	pushl  $0x0
  100c73:	6a 49          	pushl  $0x49
  100c75:	0f a8          	pushl  %gs
  100c77:	0f a0          	pushl  %fs
  100c79:	06             	pushl  %es
  100c7a:	1e             	pushl  %ds
  100c7b:	60             	pusha  
  100c7c:	66 b8 10 00    	movw   $0x10,%ax
  100c80:	8e d8          	movw   %ax,%ds
  100c82:	8e c0          	movw   %ax,%es
  100c84:	8e e0          	movw   %ax,%fs
  100c86:	8e e8          	movw   %ax,%gs
  100c88:	89 e0          	movl   %esp,%eax
  100c8a:	50             	pushl  %eax

00100c8b <isr73.1>:
  100c8b:	b8 48 2a 10 00 	movl   $0x102a48,%eax
  100c90:	ff d0          	call   *%eax
  100c92:	e9 81 f4 ff ff 	jmp    100118 <all_ints>

00100c97 <isr74>:
  100c97:	6a 00          	pushl  $0x0
  100c99:	6a 4a          	pushl  $0x4a
  100c9b:	0f a8          	pushl  %gs
  100c9d:	0f a0          	pushl  %fs
  100c9f:	06             	pushl  %es
  100ca0:	1e             	pushl  %ds
  100ca1:	60             	pusha  
  100ca2:	66 b8 10 00    	movw   $0x10,%ax
  100ca6:	8e d8          	movw   %ax,%ds
  100ca8:	8e c0          	movw   %ax,%es
  100caa:	8e e0          	movw   %ax,%fs
  100cac:	8e e8          	movw   %ax,%gs
  100cae:	89 e0          	movl   %esp,%eax
  100cb0:	50             	pushl  %eax

00100cb1 <isr74.1>:
  100cb1:	b8 48 2a 10 00 	movl   $0x102a48,%eax
  100cb6:	ff d0          	call   *%eax
  100cb8:	e9 5b f4 ff ff 	jmp    100118 <all_ints>

00100cbd <isr75>:
  100cbd:	6a 00          	pushl  $0x0
  100cbf:	6a 4b          	pushl  $0x4b
  100cc1:	0f a8          	pushl  %gs
  100cc3:	0f a0          	pushl  %fs
  100cc5:	06             	pushl  %es
  100cc6:	1e             	pushl  %ds
  100cc7:	60             	pusha  
  100cc8:	66 b8 10 00    	movw   $0x10,%ax
  100ccc:	8e d8          	movw   %ax,%ds
  100cce:	8e c0          	movw   %ax,%es
  100cd0:	8e e0          	movw   %ax,%fs
  100cd2:	8e e8          	movw   %ax,%gs
  100cd4:	89 e0          	movl   %esp,%eax
  100cd6:	50             	pushl  %eax

00100cd7 <isr75.1>:
  100cd7:	b8 48 2a 10 00 	movl   $0x102a48,%eax
  100cdc:	ff d0          	call   *%eax
  100cde:	e9 35 f4 ff ff 	jmp    100118 <all_ints>

00100ce3 <isr76>:
  100ce3:	6a 00          	pushl  $0x0
  100ce5:	6a 4c          	pushl  $0x4c
  100ce7:	0f a8          	pushl  %gs
  100ce9:	0f a0          	pushl  %fs
  100ceb:	06             	pushl  %es
  100cec:	1e             	pushl  %ds
  100ced:	60             	pusha  
  100cee:	66 b8 10 00    	movw   $0x10,%ax
  100cf2:	8e d8          	movw   %ax,%ds
  100cf4:	8e c0          	movw   %ax,%es
  100cf6:	8e e0          	movw   %ax,%fs
  100cf8:	8e e8          	movw   %ax,%gs
  100cfa:	89 e0          	movl   %esp,%eax
  100cfc:	50             	pushl  %eax

00100cfd <isr76.1>:
  100cfd:	b8 48 2a 10 00 	movl   $0x102a48,%eax
  100d02:	ff d0          	call   *%eax
  100d04:	e9 0f f4 ff ff 	jmp    100118 <all_ints>

00100d09 <isr77>:
  100d09:	6a 00          	pushl  $0x0
  100d0b:	6a 4d          	pushl  $0x4d
  100d0d:	0f a8          	pushl  %gs
  100d0f:	0f a0          	pushl  %fs
  100d11:	06             	pushl  %es
  100d12:	1e             	pushl  %ds
  100d13:	60             	pusha  
  100d14:	66 b8 10 00    	movw   $0x10,%ax
  100d18:	8e d8          	movw   %ax,%ds
  100d1a:	8e c0          	movw   %ax,%es
  100d1c:	8e e0          	movw   %ax,%fs
  100d1e:	8e e8          	movw   %ax,%gs
  100d20:	89 e0          	movl   %esp,%eax
  100d22:	50             	pushl  %eax

00100d23 <isr77.1>:
  100d23:	b8 48 2a 10 00 	movl   $0x102a48,%eax
  100d28:	ff d0          	call   *%eax
  100d2a:	e9 e9 f3 ff ff 	jmp    100118 <all_ints>

00100d2f <isr78>:
  100d2f:	6a 00          	pushl  $0x0
  100d31:	6a 4e          	pushl  $0x4e
  100d33:	0f a8          	pushl  %gs
  100d35:	0f a0          	pushl  %fs
  100d37:	06             	pushl  %es
  100d38:	1e             	pushl  %ds
  100d39:	60             	pusha  
  100d3a:	66 b8 10 00    	movw   $0x10,%ax
  100d3e:	8e d8          	movw   %ax,%ds
  100d40:	8e c0          	movw   %ax,%es
  100d42:	8e e0          	movw   %ax,%fs
  100d44:	8e e8          	movw   %ax,%gs
  100d46:	89 e0          	movl   %esp,%eax
  100d48:	50             	pushl  %eax

00100d49 <isr78.1>:
  100d49:	b8 48 2a 10 00 	movl   $0x102a48,%eax
  100d4e:	ff d0          	call   *%eax
  100d50:	e9 c3 f3 ff ff 	jmp    100118 <all_ints>

00100d55 <isr79>:
  100d55:	6a 00          	pushl  $0x0
  100d57:	6a 4f          	pushl  $0x4f
  100d59:	0f a8          	pushl  %gs
  100d5b:	0f a0          	pushl  %fs
  100d5d:	06             	pushl  %es
  100d5e:	1e             	pushl  %ds
  100d5f:	60             	pusha  
  100d60:	66 b8 10 00    	movw   $0x10,%ax
  100d64:	8e d8          	movw   %ax,%ds
  100d66:	8e c0          	movw   %ax,%es
  100d68:	8e e0          	movw   %ax,%fs
  100d6a:	8e e8          	movw   %ax,%gs
  100d6c:	89 e0          	movl   %esp,%eax
  100d6e:	50             	pushl  %eax

00100d6f <isr79.1>:
  100d6f:	b8 48 2a 10 00 	movl   $0x102a48,%eax
  100d74:	ff d0          	call   *%eax
  100d76:	e9 9d f3 ff ff 	jmp    100118 <all_ints>

00100d7b <isr80>:
  100d7b:	6a 00          	pushl  $0x0
  100d7d:	6a 50          	pushl  $0x50
  100d7f:	0f a8          	pushl  %gs
  100d81:	0f a0          	pushl  %fs
  100d83:	06             	pushl  %es
  100d84:	1e             	pushl  %ds
  100d85:	60             	pusha  
  100d86:	66 b8 10 00    	movw   $0x10,%ax
  100d8a:	8e d8          	movw   %ax,%ds
  100d8c:	8e c0          	movw   %ax,%es
  100d8e:	8e e0          	movw   %ax,%fs
  100d90:	8e e8          	movw   %ax,%gs
  100d92:	89 e0          	movl   %esp,%eax
  100d94:	50             	pushl  %eax

00100d95 <isr80.1>:
  100d95:	b8 48 2a 10 00 	movl   $0x102a48,%eax
  100d9a:	ff d0          	call   *%eax
  100d9c:	e9 77 f3 ff ff 	jmp    100118 <all_ints>

00100da1 <isr81>:
  100da1:	6a 00          	pushl  $0x0
  100da3:	6a 51          	pushl  $0x51
  100da5:	0f a8          	pushl  %gs
  100da7:	0f a0          	pushl  %fs
  100da9:	06             	pushl  %es
  100daa:	1e             	pushl  %ds
  100dab:	60             	pusha  
  100dac:	66 b8 10 00    	movw   $0x10,%ax
  100db0:	8e d8          	movw   %ax,%ds
  100db2:	8e c0          	movw   %ax,%es
  100db4:	8e e0          	movw   %ax,%fs
  100db6:	8e e8          	movw   %ax,%gs
  100db8:	89 e0          	movl   %esp,%eax
  100dba:	50             	pushl  %eax

00100dbb <isr81.1>:
  100dbb:	b8 48 2a 10 00 	movl   $0x102a48,%eax
  100dc0:	ff d0          	call   *%eax
  100dc2:	e9 51 f3 ff ff 	jmp    100118 <all_ints>

00100dc7 <isr82>:
  100dc7:	6a 00          	pushl  $0x0
  100dc9:	6a 52          	pushl  $0x52
  100dcb:	0f a8          	pushl  %gs
  100dcd:	0f a0          	pushl  %fs
  100dcf:	06             	pushl  %es
  100dd0:	1e             	pushl  %ds
  100dd1:	60             	pusha  
  100dd2:	66 b8 10 00    	movw   $0x10,%ax
  100dd6:	8e d8          	movw   %ax,%ds
  100dd8:	8e c0          	movw   %ax,%es
  100dda:	8e e0          	movw   %ax,%fs
  100ddc:	8e e8          	movw   %ax,%gs
  100dde:	89 e0          	movl   %esp,%eax
  100de0:	50             	pushl  %eax

00100de1 <isr82.1>:
  100de1:	b8 48 2a 10 00 	movl   $0x102a48,%eax
  100de6:	ff d0          	call   *%eax
  100de8:	e9 2b f3 ff ff 	jmp    100118 <all_ints>

00100ded <isr83>:
  100ded:	6a 00          	pushl  $0x0
  100def:	6a 53          	pushl  $0x53
  100df1:	0f a8          	pushl  %gs
  100df3:	0f a0          	pushl  %fs
  100df5:	06             	pushl  %es
  100df6:	1e             	pushl  %ds
  100df7:	60             	pusha  
  100df8:	66 b8 10 00    	movw   $0x10,%ax
  100dfc:	8e d8          	movw   %ax,%ds
  100dfe:	8e c0          	movw   %ax,%es
  100e00:	8e e0          	movw   %ax,%fs
  100e02:	8e e8          	movw   %ax,%gs
  100e04:	89 e0          	movl   %esp,%eax
  100e06:	50             	pushl  %eax

00100e07 <isr83.1>:
  100e07:	b8 48 2a 10 00 	movl   $0x102a48,%eax
  100e0c:	ff d0          	call   *%eax
  100e0e:	e9 05 f3 ff ff 	jmp    100118 <all_ints>

00100e13 <isr84>:
  100e13:	6a 00          	pushl  $0x0
  100e15:	6a 54          	pushl  $0x54
  100e17:	0f a8          	pushl  %gs
  100e19:	0f a0          	pushl  %fs
  100e1b:	06             	pushl  %es
  100e1c:	1e             	pushl  %ds
  100e1d:	60             	pusha  
  100e1e:	66 b8 10 00    	movw   $0x10,%ax
  100e22:	8e d8          	movw   %ax,%ds
  100e24:	8e c0          	movw   %ax,%es
  100e26:	8e e0          	movw   %ax,%fs
  100e28:	8e e8          	movw   %ax,%gs
  100e2a:	89 e0          	movl   %esp,%eax
  100e2c:	50             	pushl  %eax

00100e2d <isr84.1>:
  100e2d:	b8 48 2a 10 00 	movl   $0x102a48,%eax
  100e32:	ff d0          	call   *%eax
  100e34:	e9 df f2 ff ff 	jmp    100118 <all_ints>

00100e39 <isr85>:
  100e39:	6a 00          	pushl  $0x0
  100e3b:	6a 55          	pushl  $0x55
  100e3d:	0f a8          	pushl  %gs
  100e3f:	0f a0          	pushl  %fs
  100e41:	06             	pushl  %es
  100e42:	1e             	pushl  %ds
  100e43:	60             	pusha  
  100e44:	66 b8 10 00    	movw   $0x10,%ax
  100e48:	8e d8          	movw   %ax,%ds
  100e4a:	8e c0          	movw   %ax,%es
  100e4c:	8e e0          	movw   %ax,%fs
  100e4e:	8e e8          	movw   %ax,%gs
  100e50:	89 e0          	movl   %esp,%eax
  100e52:	50             	pushl  %eax

00100e53 <isr85.1>:
  100e53:	b8 48 2a 10 00 	movl   $0x102a48,%eax
  100e58:	ff d0          	call   *%eax
  100e5a:	e9 b9 f2 ff ff 	jmp    100118 <all_ints>

00100e5f <isr86>:
  100e5f:	6a 00          	pushl  $0x0
  100e61:	6a 56          	pushl  $0x56
  100e63:	0f a8          	pushl  %gs
  100e65:	0f a0          	pushl  %fs
  100e67:	06             	pushl  %es
  100e68:	1e             	pushl  %ds
  100e69:	60             	pusha  
  100e6a:	66 b8 10 00    	movw   $0x10,%ax
  100e6e:	8e d8          	movw   %ax,%ds
  100e70:	8e c0          	movw   %ax,%es
  100e72:	8e e0          	movw   %ax,%fs
  100e74:	8e e8          	movw   %ax,%gs
  100e76:	89 e0          	movl   %esp,%eax
  100e78:	50             	pushl  %eax

00100e79 <isr86.1>:
  100e79:	b8 48 2a 10 00 	movl   $0x102a48,%eax
  100e7e:	ff d0          	call   *%eax
  100e80:	e9 93 f2 ff ff 	jmp    100118 <all_ints>

00100e85 <isr87>:
  100e85:	6a 00          	pushl  $0x0
  100e87:	6a 57          	pushl  $0x57
  100e89:	0f a8          	pushl  %gs
  100e8b:	0f a0          	pushl  %fs
  100e8d:	06             	pushl  %es
  100e8e:	1e             	pushl  %ds
  100e8f:	60             	pusha  
  100e90:	66 b8 10 00    	movw   $0x10,%ax
  100e94:	8e d8          	movw   %ax,%ds
  100e96:	8e c0          	movw   %ax,%es
  100e98:	8e e0          	movw   %ax,%fs
  100e9a:	8e e8          	movw   %ax,%gs
  100e9c:	89 e0          	movl   %esp,%eax
  100e9e:	50             	pushl  %eax

00100e9f <isr87.1>:
  100e9f:	b8 48 2a 10 00 	movl   $0x102a48,%eax
  100ea4:	ff d0          	call   *%eax
  100ea6:	e9 6d f2 ff ff 	jmp    100118 <all_ints>

00100eab <isr88>:
  100eab:	6a 00          	pushl  $0x0
  100ead:	6a 58          	pushl  $0x58
  100eaf:	0f a8          	pushl  %gs
  100eb1:	0f a0          	pushl  %fs
  100eb3:	06             	pushl  %es
  100eb4:	1e             	pushl  %ds
  100eb5:	60             	pusha  
  100eb6:	66 b8 10 00    	movw   $0x10,%ax
  100eba:	8e d8          	movw   %ax,%ds
  100ebc:	8e c0          	movw   %ax,%es
  100ebe:	8e e0          	movw   %ax,%fs
  100ec0:	8e e8          	movw   %ax,%gs
  100ec2:	89 e0          	movl   %esp,%eax
  100ec4:	50             	pushl  %eax

00100ec5 <isr88.1>:
  100ec5:	b8 48 2a 10 00 	movl   $0x102a48,%eax
  100eca:	ff d0          	call   *%eax
  100ecc:	e9 47 f2 ff ff 	jmp    100118 <all_ints>

00100ed1 <isr89>:
  100ed1:	6a 00          	pushl  $0x0
  100ed3:	6a 59          	pushl  $0x59
  100ed5:	0f a8          	pushl  %gs
  100ed7:	0f a0          	pushl  %fs
  100ed9:	06             	pushl  %es
  100eda:	1e             	pushl  %ds
  100edb:	60             	pusha  
  100edc:	66 b8 10 00    	movw   $0x10,%ax
  100ee0:	8e d8          	movw   %ax,%ds
  100ee2:	8e c0          	movw   %ax,%es
  100ee4:	8e e0          	movw   %ax,%fs
  100ee6:	8e e8          	movw   %ax,%gs
  100ee8:	89 e0          	movl   %esp,%eax
  100eea:	50             	pushl  %eax

00100eeb <isr89.1>:
  100eeb:	b8 48 2a 10 00 	movl   $0x102a48,%eax
  100ef0:	ff d0          	call   *%eax
  100ef2:	e9 21 f2 ff ff 	jmp    100118 <all_ints>

00100ef7 <isr90>:
  100ef7:	6a 00          	pushl  $0x0
  100ef9:	6a 5a          	pushl  $0x5a
  100efb:	0f a8          	pushl  %gs
  100efd:	0f a0          	pushl  %fs
  100eff:	06             	pushl  %es
  100f00:	1e             	pushl  %ds
  100f01:	60             	pusha  
  100f02:	66 b8 10 00    	movw   $0x10,%ax
  100f06:	8e d8          	movw   %ax,%ds
  100f08:	8e c0          	movw   %ax,%es
  100f0a:	8e e0          	movw   %ax,%fs
  100f0c:	8e e8          	movw   %ax,%gs
  100f0e:	89 e0          	movl   %esp,%eax
  100f10:	50             	pushl  %eax

00100f11 <isr90.1>:
  100f11:	b8 48 2a 10 00 	movl   $0x102a48,%eax
  100f16:	ff d0          	call   *%eax
  100f18:	e9 fb f1 ff ff 	jmp    100118 <all_ints>

00100f1d <isr91>:
  100f1d:	6a 00          	pushl  $0x0
  100f1f:	6a 5b          	pushl  $0x5b
  100f21:	0f a8          	pushl  %gs
  100f23:	0f a0          	pushl  %fs
  100f25:	06             	pushl  %es
  100f26:	1e             	pushl  %ds
  100f27:	60             	pusha  
  100f28:	66 b8 10 00    	movw   $0x10,%ax
  100f2c:	8e d8          	movw   %ax,%ds
  100f2e:	8e c0          	movw   %ax,%es
  100f30:	8e e0          	movw   %ax,%fs
  100f32:	8e e8          	movw   %ax,%gs
  100f34:	89 e0          	movl   %esp,%eax
  100f36:	50             	pushl  %eax

00100f37 <isr91.1>:
  100f37:	b8 48 2a 10 00 	movl   $0x102a48,%eax
  100f3c:	ff d0          	call   *%eax
  100f3e:	e9 d5 f1 ff ff 	jmp    100118 <all_ints>

00100f43 <isr92>:
  100f43:	6a 00          	pushl  $0x0
  100f45:	6a 5c          	pushl  $0x5c
  100f47:	0f a8          	pushl  %gs
  100f49:	0f a0          	pushl  %fs
  100f4b:	06             	pushl  %es
  100f4c:	1e             	pushl  %ds
  100f4d:	60             	pusha  
  100f4e:	66 b8 10 00    	movw   $0x10,%ax
  100f52:	8e d8          	movw   %ax,%ds
  100f54:	8e c0          	movw   %ax,%es
  100f56:	8e e0          	movw   %ax,%fs
  100f58:	8e e8          	movw   %ax,%gs
  100f5a:	89 e0          	movl   %esp,%eax
  100f5c:	50             	pushl  %eax

00100f5d <isr92.1>:
  100f5d:	b8 48 2a 10 00 	movl   $0x102a48,%eax
  100f62:	ff d0          	call   *%eax
  100f64:	e9 af f1 ff ff 	jmp    100118 <all_ints>

00100f69 <isr93>:
  100f69:	6a 00          	pushl  $0x0
  100f6b:	6a 5d          	pushl  $0x5d
  100f6d:	0f a8          	pushl  %gs
  100f6f:	0f a0          	pushl  %fs
  100f71:	06             	pushl  %es
  100f72:	1e             	pushl  %ds
  100f73:	60             	pusha  
  100f74:	66 b8 10 00    	movw   $0x10,%ax
  100f78:	8e d8          	movw   %ax,%ds
  100f7a:	8e c0          	movw   %ax,%es
  100f7c:	8e e0          	movw   %ax,%fs
  100f7e:	8e e8          	movw   %ax,%gs
  100f80:	89 e0          	movl   %esp,%eax
  100f82:	50             	pushl  %eax

00100f83 <isr93.1>:
  100f83:	b8 48 2a 10 00 	movl   $0x102a48,%eax
  100f88:	ff d0          	call   *%eax
  100f8a:	e9 89 f1 ff ff 	jmp    100118 <all_ints>

00100f8f <isr94>:
  100f8f:	6a 00          	pushl  $0x0
  100f91:	6a 5e          	pushl  $0x5e
  100f93:	0f a8          	pushl  %gs
  100f95:	0f a0          	pushl  %fs
  100f97:	06             	pushl  %es
  100f98:	1e             	pushl  %ds
  100f99:	60             	pusha  
  100f9a:	66 b8 10 00    	movw   $0x10,%ax
  100f9e:	8e d8          	movw   %ax,%ds
  100fa0:	8e c0          	movw   %ax,%es
  100fa2:	8e e0          	movw   %ax,%fs
  100fa4:	8e e8          	movw   %ax,%gs
  100fa6:	89 e0          	movl   %esp,%eax
  100fa8:	50             	pushl  %eax

00100fa9 <isr94.1>:
  100fa9:	b8 48 2a 10 00 	movl   $0x102a48,%eax
  100fae:	ff d0          	call   *%eax
  100fb0:	e9 63 f1 ff ff 	jmp    100118 <all_ints>

00100fb5 <isr95>:
  100fb5:	6a 00          	pushl  $0x0
  100fb7:	6a 5f          	pushl  $0x5f
  100fb9:	0f a8          	pushl  %gs
  100fbb:	0f a0          	pushl  %fs
  100fbd:	06             	pushl  %es
  100fbe:	1e             	pushl  %ds
  100fbf:	60             	pusha  
  100fc0:	66 b8 10 00    	movw   $0x10,%ax
  100fc4:	8e d8          	movw   %ax,%ds
  100fc6:	8e c0          	movw   %ax,%es
  100fc8:	8e e0          	movw   %ax,%fs
  100fca:	8e e8          	movw   %ax,%gs
  100fcc:	89 e0          	movl   %esp,%eax
  100fce:	50             	pushl  %eax

00100fcf <isr95.1>:
  100fcf:	b8 48 2a 10 00 	movl   $0x102a48,%eax
  100fd4:	ff d0          	call   *%eax
  100fd6:	e9 3d f1 ff ff 	jmp    100118 <all_ints>

00100fdb <isr96>:
  100fdb:	6a 00          	pushl  $0x0
  100fdd:	6a 60          	pushl  $0x60
  100fdf:	0f a8          	pushl  %gs
  100fe1:	0f a0          	pushl  %fs
  100fe3:	06             	pushl  %es
  100fe4:	1e             	pushl  %ds
  100fe5:	60             	pusha  
  100fe6:	66 b8 10 00    	movw   $0x10,%ax
  100fea:	8e d8          	movw   %ax,%ds
  100fec:	8e c0          	movw   %ax,%es
  100fee:	8e e0          	movw   %ax,%fs
  100ff0:	8e e8          	movw   %ax,%gs
  100ff2:	89 e0          	movl   %esp,%eax
  100ff4:	50             	pushl  %eax

00100ff5 <isr96.1>:
  100ff5:	b8 48 2a 10 00 	movl   $0x102a48,%eax
  100ffa:	ff d0          	call   *%eax
  100ffc:	e9 17 f1 ff ff 	jmp    100118 <all_ints>

00101001 <isr97>:
  101001:	6a 00          	pushl  $0x0
  101003:	6a 61          	pushl  $0x61
  101005:	0f a8          	pushl  %gs
  101007:	0f a0          	pushl  %fs
  101009:	06             	pushl  %es
  10100a:	1e             	pushl  %ds
  10100b:	60             	pusha  
  10100c:	66 b8 10 00    	movw   $0x10,%ax
  101010:	8e d8          	movw   %ax,%ds
  101012:	8e c0          	movw   %ax,%es
  101014:	8e e0          	movw   %ax,%fs
  101016:	8e e8          	movw   %ax,%gs
  101018:	89 e0          	movl   %esp,%eax
  10101a:	50             	pushl  %eax

0010101b <isr97.1>:
  10101b:	b8 48 2a 10 00 	movl   $0x102a48,%eax
  101020:	ff d0          	call   *%eax
  101022:	e9 f1 f0 ff ff 	jmp    100118 <all_ints>

00101027 <isr98>:
  101027:	6a 00          	pushl  $0x0
  101029:	6a 62          	pushl  $0x62
  10102b:	0f a8          	pushl  %gs
  10102d:	0f a0          	pushl  %fs
  10102f:	06             	pushl  %es
  101030:	1e             	pushl  %ds
  101031:	60             	pusha  
  101032:	66 b8 10 00    	movw   $0x10,%ax
  101036:	8e d8          	movw   %ax,%ds
  101038:	8e c0          	movw   %ax,%es
  10103a:	8e e0          	movw   %ax,%fs
  10103c:	8e e8          	movw   %ax,%gs
  10103e:	89 e0          	movl   %esp,%eax
  101040:	50             	pushl  %eax

00101041 <isr98.1>:
  101041:	b8 48 2a 10 00 	movl   $0x102a48,%eax
  101046:	ff d0          	call   *%eax
  101048:	e9 cb f0 ff ff 	jmp    100118 <all_ints>

0010104d <isr99>:
  10104d:	6a 00          	pushl  $0x0
  10104f:	6a 63          	pushl  $0x63
  101051:	0f a8          	pushl  %gs
  101053:	0f a0          	pushl  %fs
  101055:	06             	pushl  %es
  101056:	1e             	pushl  %ds
  101057:	60             	pusha  
  101058:	66 b8 10 00    	movw   $0x10,%ax
  10105c:	8e d8          	movw   %ax,%ds
  10105e:	8e c0          	movw   %ax,%es
  101060:	8e e0          	movw   %ax,%fs
  101062:	8e e8          	movw   %ax,%gs
  101064:	89 e0          	movl   %esp,%eax
  101066:	50             	pushl  %eax

00101067 <isr99.1>:
  101067:	b8 48 2a 10 00 	movl   $0x102a48,%eax
  10106c:	ff d0          	call   *%eax
  10106e:	e9 a5 f0 ff ff 	jmp    100118 <all_ints>

00101073 <isr100>:
  101073:	6a 00          	pushl  $0x0
  101075:	6a 64          	pushl  $0x64
  101077:	0f a8          	pushl  %gs
  101079:	0f a0          	pushl  %fs
  10107b:	06             	pushl  %es
  10107c:	1e             	pushl  %ds
  10107d:	60             	pusha  
  10107e:	66 b8 10 00    	movw   $0x10,%ax
  101082:	8e d8          	movw   %ax,%ds
  101084:	8e c0          	movw   %ax,%es
  101086:	8e e0          	movw   %ax,%fs
  101088:	8e e8          	movw   %ax,%gs
  10108a:	89 e0          	movl   %esp,%eax
  10108c:	50             	pushl  %eax

0010108d <isr100.1>:
  10108d:	b8 48 2a 10 00 	movl   $0x102a48,%eax
  101092:	ff d0          	call   *%eax
  101094:	e9 7f f0 ff ff 	jmp    100118 <all_ints>

00101099 <isr101>:
  101099:	6a 00          	pushl  $0x0
  10109b:	6a 65          	pushl  $0x65
  10109d:	0f a8          	pushl  %gs
  10109f:	0f a0          	pushl  %fs
  1010a1:	06             	pushl  %es
  1010a2:	1e             	pushl  %ds
  1010a3:	60             	pusha  
  1010a4:	66 b8 10 00    	movw   $0x10,%ax
  1010a8:	8e d8          	movw   %ax,%ds
  1010aa:	8e c0          	movw   %ax,%es
  1010ac:	8e e0          	movw   %ax,%fs
  1010ae:	8e e8          	movw   %ax,%gs
  1010b0:	89 e0          	movl   %esp,%eax
  1010b2:	50             	pushl  %eax

001010b3 <isr101.1>:
  1010b3:	b8 48 2a 10 00 	movl   $0x102a48,%eax
  1010b8:	ff d0          	call   *%eax
  1010ba:	e9 59 f0 ff ff 	jmp    100118 <all_ints>

001010bf <isr102>:
  1010bf:	6a 00          	pushl  $0x0
  1010c1:	6a 66          	pushl  $0x66
  1010c3:	0f a8          	pushl  %gs
  1010c5:	0f a0          	pushl  %fs
  1010c7:	06             	pushl  %es
  1010c8:	1e             	pushl  %ds
  1010c9:	60             	pusha  
  1010ca:	66 b8 10 00    	movw   $0x10,%ax
  1010ce:	8e d8          	movw   %ax,%ds
  1010d0:	8e c0          	movw   %ax,%es
  1010d2:	8e e0          	movw   %ax,%fs
  1010d4:	8e e8          	movw   %ax,%gs
  1010d6:	89 e0          	movl   %esp,%eax
  1010d8:	50             	pushl  %eax

001010d9 <isr102.1>:
  1010d9:	b8 48 2a 10 00 	movl   $0x102a48,%eax
  1010de:	ff d0          	call   *%eax
  1010e0:	e9 33 f0 ff ff 	jmp    100118 <all_ints>

001010e5 <isr103>:
  1010e5:	6a 00          	pushl  $0x0
  1010e7:	6a 67          	pushl  $0x67
  1010e9:	0f a8          	pushl  %gs
  1010eb:	0f a0          	pushl  %fs
  1010ed:	06             	pushl  %es
  1010ee:	1e             	pushl  %ds
  1010ef:	60             	pusha  
  1010f0:	66 b8 10 00    	movw   $0x10,%ax
  1010f4:	8e d8          	movw   %ax,%ds
  1010f6:	8e c0          	movw   %ax,%es
  1010f8:	8e e0          	movw   %ax,%fs
  1010fa:	8e e8          	movw   %ax,%gs
  1010fc:	89 e0          	movl   %esp,%eax
  1010fe:	50             	pushl  %eax

001010ff <isr103.1>:
  1010ff:	b8 48 2a 10 00 	movl   $0x102a48,%eax
  101104:	ff d0          	call   *%eax
  101106:	e9 0d f0 ff ff 	jmp    100118 <all_ints>

0010110b <isr104>:
  10110b:	6a 00          	pushl  $0x0
  10110d:	6a 68          	pushl  $0x68
  10110f:	0f a8          	pushl  %gs
  101111:	0f a0          	pushl  %fs
  101113:	06             	pushl  %es
  101114:	1e             	pushl  %ds
  101115:	60             	pusha  
  101116:	66 b8 10 00    	movw   $0x10,%ax
  10111a:	8e d8          	movw   %ax,%ds
  10111c:	8e c0          	movw   %ax,%es
  10111e:	8e e0          	movw   %ax,%fs
  101120:	8e e8          	movw   %ax,%gs
  101122:	89 e0          	movl   %esp,%eax
  101124:	50             	pushl  %eax

00101125 <isr104.1>:
  101125:	b8 48 2a 10 00 	movl   $0x102a48,%eax
  10112a:	ff d0          	call   *%eax
  10112c:	e9 e7 ef ff ff 	jmp    100118 <all_ints>

00101131 <isr105>:
  101131:	6a 00          	pushl  $0x0
  101133:	6a 69          	pushl  $0x69
  101135:	0f a8          	pushl  %gs
  101137:	0f a0          	pushl  %fs
  101139:	06             	pushl  %es
  10113a:	1e             	pushl  %ds
  10113b:	60             	pusha  
  10113c:	66 b8 10 00    	movw   $0x10,%ax
  101140:	8e d8          	movw   %ax,%ds
  101142:	8e c0          	movw   %ax,%es
  101144:	8e e0          	movw   %ax,%fs
  101146:	8e e8          	movw   %ax,%gs
  101148:	89 e0          	movl   %esp,%eax
  10114a:	50             	pushl  %eax

0010114b <isr105.1>:
  10114b:	b8 48 2a 10 00 	movl   $0x102a48,%eax
  101150:	ff d0          	call   *%eax
  101152:	e9 c1 ef ff ff 	jmp    100118 <all_ints>

00101157 <isr106>:
  101157:	6a 00          	pushl  $0x0
  101159:	6a 6a          	pushl  $0x6a
  10115b:	0f a8          	pushl  %gs
  10115d:	0f a0          	pushl  %fs
  10115f:	06             	pushl  %es
  101160:	1e             	pushl  %ds
  101161:	60             	pusha  
  101162:	66 b8 10 00    	movw   $0x10,%ax
  101166:	8e d8          	movw   %ax,%ds
  101168:	8e c0          	movw   %ax,%es
  10116a:	8e e0          	movw   %ax,%fs
  10116c:	8e e8          	movw   %ax,%gs
  10116e:	89 e0          	movl   %esp,%eax
  101170:	50             	pushl  %eax

00101171 <isr106.1>:
  101171:	b8 48 2a 10 00 	movl   $0x102a48,%eax
  101176:	ff d0          	call   *%eax
  101178:	e9 9b ef ff ff 	jmp    100118 <all_ints>

0010117d <isr107>:
  10117d:	6a 00          	pushl  $0x0
  10117f:	6a 6b          	pushl  $0x6b
  101181:	0f a8          	pushl  %gs
  101183:	0f a0          	pushl  %fs
  101185:	06             	pushl  %es
  101186:	1e             	pushl  %ds
  101187:	60             	pusha  
  101188:	66 b8 10 00    	movw   $0x10,%ax
  10118c:	8e d8          	movw   %ax,%ds
  10118e:	8e c0          	movw   %ax,%es
  101190:	8e e0          	movw   %ax,%fs
  101192:	8e e8          	movw   %ax,%gs
  101194:	89 e0          	movl   %esp,%eax
  101196:	50             	pushl  %eax

00101197 <isr107.1>:
  101197:	b8 48 2a 10 00 	movl   $0x102a48,%eax
  10119c:	ff d0          	call   *%eax
  10119e:	e9 75 ef ff ff 	jmp    100118 <all_ints>

001011a3 <isr108>:
  1011a3:	6a 00          	pushl  $0x0
  1011a5:	6a 6c          	pushl  $0x6c
  1011a7:	0f a8          	pushl  %gs
  1011a9:	0f a0          	pushl  %fs
  1011ab:	06             	pushl  %es
  1011ac:	1e             	pushl  %ds
  1011ad:	60             	pusha  
  1011ae:	66 b8 10 00    	movw   $0x10,%ax
  1011b2:	8e d8          	movw   %ax,%ds
  1011b4:	8e c0          	movw   %ax,%es
  1011b6:	8e e0          	movw   %ax,%fs
  1011b8:	8e e8          	movw   %ax,%gs
  1011ba:	89 e0          	movl   %esp,%eax
  1011bc:	50             	pushl  %eax

001011bd <isr108.1>:
  1011bd:	b8 48 2a 10 00 	movl   $0x102a48,%eax
  1011c2:	ff d0          	call   *%eax
  1011c4:	e9 4f ef ff ff 	jmp    100118 <all_ints>

001011c9 <isr109>:
  1011c9:	6a 00          	pushl  $0x0
  1011cb:	6a 6d          	pushl  $0x6d
  1011cd:	0f a8          	pushl  %gs
  1011cf:	0f a0          	pushl  %fs
  1011d1:	06             	pushl  %es
  1011d2:	1e             	pushl  %ds
  1011d3:	60             	pusha  
  1011d4:	66 b8 10 00    	movw   $0x10,%ax
  1011d8:	8e d8          	movw   %ax,%ds
  1011da:	8e c0          	movw   %ax,%es
  1011dc:	8e e0          	movw   %ax,%fs
  1011de:	8e e8          	movw   %ax,%gs
  1011e0:	89 e0          	movl   %esp,%eax
  1011e2:	50             	pushl  %eax

001011e3 <isr109.1>:
  1011e3:	b8 48 2a 10 00 	movl   $0x102a48,%eax
  1011e8:	ff d0          	call   *%eax
  1011ea:	e9 29 ef ff ff 	jmp    100118 <all_ints>

001011ef <isr110>:
  1011ef:	6a 00          	pushl  $0x0
  1011f1:	6a 6e          	pushl  $0x6e
  1011f3:	0f a8          	pushl  %gs
  1011f5:	0f a0          	pushl  %fs
  1011f7:	06             	pushl  %es
  1011f8:	1e             	pushl  %ds
  1011f9:	60             	pusha  
  1011fa:	66 b8 10 00    	movw   $0x10,%ax
  1011fe:	8e d8          	movw   %ax,%ds
  101200:	8e c0          	movw   %ax,%es
  101202:	8e e0          	movw   %ax,%fs
  101204:	8e e8          	movw   %ax,%gs
  101206:	89 e0          	movl   %esp,%eax
  101208:	50             	pushl  %eax

00101209 <isr110.1>:
  101209:	b8 48 2a 10 00 	movl   $0x102a48,%eax
  10120e:	ff d0          	call   *%eax
  101210:	e9 03 ef ff ff 	jmp    100118 <all_ints>

00101215 <isr111>:
  101215:	6a 00          	pushl  $0x0
  101217:	6a 6f          	pushl  $0x6f
  101219:	0f a8          	pushl  %gs
  10121b:	0f a0          	pushl  %fs
  10121d:	06             	pushl  %es
  10121e:	1e             	pushl  %ds
  10121f:	60             	pusha  
  101220:	66 b8 10 00    	movw   $0x10,%ax
  101224:	8e d8          	movw   %ax,%ds
  101226:	8e c0          	movw   %ax,%es
  101228:	8e e0          	movw   %ax,%fs
  10122a:	8e e8          	movw   %ax,%gs
  10122c:	89 e0          	movl   %esp,%eax
  10122e:	50             	pushl  %eax

0010122f <isr111.1>:
  10122f:	b8 48 2a 10 00 	movl   $0x102a48,%eax
  101234:	ff d0          	call   *%eax
  101236:	e9 dd ee ff ff 	jmp    100118 <all_ints>

0010123b <isr112>:
  10123b:	6a 00          	pushl  $0x0
  10123d:	6a 70          	pushl  $0x70
  10123f:	0f a8          	pushl  %gs
  101241:	0f a0          	pushl  %fs
  101243:	06             	pushl  %es
  101244:	1e             	pushl  %ds
  101245:	60             	pusha  
  101246:	66 b8 10 00    	movw   $0x10,%ax
  10124a:	8e d8          	movw   %ax,%ds
  10124c:	8e c0          	movw   %ax,%es
  10124e:	8e e0          	movw   %ax,%fs
  101250:	8e e8          	movw   %ax,%gs
  101252:	89 e0          	movl   %esp,%eax
  101254:	50             	pushl  %eax

00101255 <isr112.1>:
  101255:	b8 48 2a 10 00 	movl   $0x102a48,%eax
  10125a:	ff d0          	call   *%eax
  10125c:	e9 b7 ee ff ff 	jmp    100118 <all_ints>

00101261 <isr113>:
  101261:	6a 00          	pushl  $0x0
  101263:	6a 71          	pushl  $0x71
  101265:	0f a8          	pushl  %gs
  101267:	0f a0          	pushl  %fs
  101269:	06             	pushl  %es
  10126a:	1e             	pushl  %ds
  10126b:	60             	pusha  
  10126c:	66 b8 10 00    	movw   $0x10,%ax
  101270:	8e d8          	movw   %ax,%ds
  101272:	8e c0          	movw   %ax,%es
  101274:	8e e0          	movw   %ax,%fs
  101276:	8e e8          	movw   %ax,%gs
  101278:	89 e0          	movl   %esp,%eax
  10127a:	50             	pushl  %eax

0010127b <isr113.1>:
  10127b:	b8 48 2a 10 00 	movl   $0x102a48,%eax
  101280:	ff d0          	call   *%eax
  101282:	e9 91 ee ff ff 	jmp    100118 <all_ints>

00101287 <isr114>:
  101287:	6a 00          	pushl  $0x0
  101289:	6a 72          	pushl  $0x72
  10128b:	0f a8          	pushl  %gs
  10128d:	0f a0          	pushl  %fs
  10128f:	06             	pushl  %es
  101290:	1e             	pushl  %ds
  101291:	60             	pusha  
  101292:	66 b8 10 00    	movw   $0x10,%ax
  101296:	8e d8          	movw   %ax,%ds
  101298:	8e c0          	movw   %ax,%es
  10129a:	8e e0          	movw   %ax,%fs
  10129c:	8e e8          	movw   %ax,%gs
  10129e:	89 e0          	movl   %esp,%eax
  1012a0:	50             	pushl  %eax

001012a1 <isr114.1>:
  1012a1:	b8 48 2a 10 00 	movl   $0x102a48,%eax
  1012a6:	ff d0          	call   *%eax
  1012a8:	e9 6b ee ff ff 	jmp    100118 <all_ints>

001012ad <isr115>:
  1012ad:	6a 00          	pushl  $0x0
  1012af:	6a 73          	pushl  $0x73
  1012b1:	0f a8          	pushl  %gs
  1012b3:	0f a0          	pushl  %fs
  1012b5:	06             	pushl  %es
  1012b6:	1e             	pushl  %ds
  1012b7:	60             	pusha  
  1012b8:	66 b8 10 00    	movw   $0x10,%ax
  1012bc:	8e d8          	movw   %ax,%ds
  1012be:	8e c0          	movw   %ax,%es
  1012c0:	8e e0          	movw   %ax,%fs
  1012c2:	8e e8          	movw   %ax,%gs
  1012c4:	89 e0          	movl   %esp,%eax
  1012c6:	50             	pushl  %eax

001012c7 <isr115.1>:
  1012c7:	b8 48 2a 10 00 	movl   $0x102a48,%eax
  1012cc:	ff d0          	call   *%eax
  1012ce:	e9 45 ee ff ff 	jmp    100118 <all_ints>

001012d3 <isr116>:
  1012d3:	6a 00          	pushl  $0x0
  1012d5:	6a 74          	pushl  $0x74
  1012d7:	0f a8          	pushl  %gs
  1012d9:	0f a0          	pushl  %fs
  1012db:	06             	pushl  %es
  1012dc:	1e             	pushl  %ds
  1012dd:	60             	pusha  
  1012de:	66 b8 10 00    	movw   $0x10,%ax
  1012e2:	8e d8          	movw   %ax,%ds
  1012e4:	8e c0          	movw   %ax,%es
  1012e6:	8e e0          	movw   %ax,%fs
  1012e8:	8e e8          	movw   %ax,%gs
  1012ea:	89 e0          	movl   %esp,%eax
  1012ec:	50             	pushl  %eax

001012ed <isr116.1>:
  1012ed:	b8 48 2a 10 00 	movl   $0x102a48,%eax
  1012f2:	ff d0          	call   *%eax
  1012f4:	e9 1f ee ff ff 	jmp    100118 <all_ints>

001012f9 <isr117>:
  1012f9:	6a 00          	pushl  $0x0
  1012fb:	6a 75          	pushl  $0x75
  1012fd:	0f a8          	pushl  %gs
  1012ff:	0f a0          	pushl  %fs
  101301:	06             	pushl  %es
  101302:	1e             	pushl  %ds
  101303:	60             	pusha  
  101304:	66 b8 10 00    	movw   $0x10,%ax
  101308:	8e d8          	movw   %ax,%ds
  10130a:	8e c0          	movw   %ax,%es
  10130c:	8e e0          	movw   %ax,%fs
  10130e:	8e e8          	movw   %ax,%gs
  101310:	89 e0          	movl   %esp,%eax
  101312:	50             	pushl  %eax

00101313 <isr117.1>:
  101313:	b8 48 2a 10 00 	movl   $0x102a48,%eax
  101318:	ff d0          	call   *%eax
  10131a:	e9 f9 ed ff ff 	jmp    100118 <all_ints>

0010131f <isr118>:
  10131f:	6a 00          	pushl  $0x0
  101321:	6a 76          	pushl  $0x76
  101323:	0f a8          	pushl  %gs
  101325:	0f a0          	pushl  %fs
  101327:	06             	pushl  %es
  101328:	1e             	pushl  %ds
  101329:	60             	pusha  
  10132a:	66 b8 10 00    	movw   $0x10,%ax
  10132e:	8e d8          	movw   %ax,%ds
  101330:	8e c0          	movw   %ax,%es
  101332:	8e e0          	movw   %ax,%fs
  101334:	8e e8          	movw   %ax,%gs
  101336:	89 e0          	movl   %esp,%eax
  101338:	50             	pushl  %eax

00101339 <isr118.1>:
  101339:	b8 48 2a 10 00 	movl   $0x102a48,%eax
  10133e:	ff d0          	call   *%eax
  101340:	e9 d3 ed ff ff 	jmp    100118 <all_ints>

00101345 <isr119>:
  101345:	6a 00          	pushl  $0x0
  101347:	6a 77          	pushl  $0x77
  101349:	0f a8          	pushl  %gs
  10134b:	0f a0          	pushl  %fs
  10134d:	06             	pushl  %es
  10134e:	1e             	pushl  %ds
  10134f:	60             	pusha  
  101350:	66 b8 10 00    	movw   $0x10,%ax
  101354:	8e d8          	movw   %ax,%ds
  101356:	8e c0          	movw   %ax,%es
  101358:	8e e0          	movw   %ax,%fs
  10135a:	8e e8          	movw   %ax,%gs
  10135c:	89 e0          	movl   %esp,%eax
  10135e:	50             	pushl  %eax

0010135f <isr119.1>:
  10135f:	b8 48 2a 10 00 	movl   $0x102a48,%eax
  101364:	ff d0          	call   *%eax
  101366:	e9 ad ed ff ff 	jmp    100118 <all_ints>

0010136b <isr120>:
  10136b:	6a 00          	pushl  $0x0
  10136d:	6a 78          	pushl  $0x78
  10136f:	0f a8          	pushl  %gs
  101371:	0f a0          	pushl  %fs
  101373:	06             	pushl  %es
  101374:	1e             	pushl  %ds
  101375:	60             	pusha  
  101376:	66 b8 10 00    	movw   $0x10,%ax
  10137a:	8e d8          	movw   %ax,%ds
  10137c:	8e c0          	movw   %ax,%es
  10137e:	8e e0          	movw   %ax,%fs
  101380:	8e e8          	movw   %ax,%gs
  101382:	89 e0          	movl   %esp,%eax
  101384:	50             	pushl  %eax

00101385 <isr120.1>:
  101385:	b8 48 2a 10 00 	movl   $0x102a48,%eax
  10138a:	ff d0          	call   *%eax
  10138c:	e9 87 ed ff ff 	jmp    100118 <all_ints>

00101391 <isr121>:
  101391:	6a 00          	pushl  $0x0
  101393:	6a 79          	pushl  $0x79
  101395:	0f a8          	pushl  %gs
  101397:	0f a0          	pushl  %fs
  101399:	06             	pushl  %es
  10139a:	1e             	pushl  %ds
  10139b:	60             	pusha  
  10139c:	66 b8 10 00    	movw   $0x10,%ax
  1013a0:	8e d8          	movw   %ax,%ds
  1013a2:	8e c0          	movw   %ax,%es
  1013a4:	8e e0          	movw   %ax,%fs
  1013a6:	8e e8          	movw   %ax,%gs
  1013a8:	89 e0          	movl   %esp,%eax
  1013aa:	50             	pushl  %eax

001013ab <isr121.1>:
  1013ab:	b8 48 2a 10 00 	movl   $0x102a48,%eax
  1013b0:	ff d0          	call   *%eax
  1013b2:	e9 61 ed ff ff 	jmp    100118 <all_ints>

001013b7 <isr122>:
  1013b7:	6a 00          	pushl  $0x0
  1013b9:	6a 7a          	pushl  $0x7a
  1013bb:	0f a8          	pushl  %gs
  1013bd:	0f a0          	pushl  %fs
  1013bf:	06             	pushl  %es
  1013c0:	1e             	pushl  %ds
  1013c1:	60             	pusha  
  1013c2:	66 b8 10 00    	movw   $0x10,%ax
  1013c6:	8e d8          	movw   %ax,%ds
  1013c8:	8e c0          	movw   %ax,%es
  1013ca:	8e e0          	movw   %ax,%fs
  1013cc:	8e e8          	movw   %ax,%gs
  1013ce:	89 e0          	movl   %esp,%eax
  1013d0:	50             	pushl  %eax

001013d1 <isr122.1>:
  1013d1:	b8 48 2a 10 00 	movl   $0x102a48,%eax
  1013d6:	ff d0          	call   *%eax
  1013d8:	e9 3b ed ff ff 	jmp    100118 <all_ints>

001013dd <isr123>:
  1013dd:	6a 00          	pushl  $0x0
  1013df:	6a 7b          	pushl  $0x7b
  1013e1:	0f a8          	pushl  %gs
  1013e3:	0f a0          	pushl  %fs
  1013e5:	06             	pushl  %es
  1013e6:	1e             	pushl  %ds
  1013e7:	60             	pusha  
  1013e8:	66 b8 10 00    	movw   $0x10,%ax
  1013ec:	8e d8          	movw   %ax,%ds
  1013ee:	8e c0          	movw   %ax,%es
  1013f0:	8e e0          	movw   %ax,%fs
  1013f2:	8e e8          	movw   %ax,%gs
  1013f4:	89 e0          	movl   %esp,%eax
  1013f6:	50             	pushl  %eax

001013f7 <isr123.1>:
  1013f7:	b8 48 2a 10 00 	movl   $0x102a48,%eax
  1013fc:	ff d0          	call   *%eax
  1013fe:	e9 15 ed ff ff 	jmp    100118 <all_ints>

00101403 <isr124>:
  101403:	6a 00          	pushl  $0x0
  101405:	6a 7c          	pushl  $0x7c
  101407:	0f a8          	pushl  %gs
  101409:	0f a0          	pushl  %fs
  10140b:	06             	pushl  %es
  10140c:	1e             	pushl  %ds
  10140d:	60             	pusha  
  10140e:	66 b8 10 00    	movw   $0x10,%ax
  101412:	8e d8          	movw   %ax,%ds
  101414:	8e c0          	movw   %ax,%es
  101416:	8e e0          	movw   %ax,%fs
  101418:	8e e8          	movw   %ax,%gs
  10141a:	89 e0          	movl   %esp,%eax
  10141c:	50             	pushl  %eax

0010141d <isr124.1>:
  10141d:	b8 48 2a 10 00 	movl   $0x102a48,%eax
  101422:	ff d0          	call   *%eax
  101424:	e9 ef ec ff ff 	jmp    100118 <all_ints>

00101429 <isr125>:
  101429:	6a 00          	pushl  $0x0
  10142b:	6a 7d          	pushl  $0x7d
  10142d:	0f a8          	pushl  %gs
  10142f:	0f a0          	pushl  %fs
  101431:	06             	pushl  %es
  101432:	1e             	pushl  %ds
  101433:	60             	pusha  
  101434:	66 b8 10 00    	movw   $0x10,%ax
  101438:	8e d8          	movw   %ax,%ds
  10143a:	8e c0          	movw   %ax,%es
  10143c:	8e e0          	movw   %ax,%fs
  10143e:	8e e8          	movw   %ax,%gs
  101440:	89 e0          	movl   %esp,%eax
  101442:	50             	pushl  %eax

00101443 <isr125.1>:
  101443:	b8 48 2a 10 00 	movl   $0x102a48,%eax
  101448:	ff d0          	call   *%eax
  10144a:	e9 c9 ec ff ff 	jmp    100118 <all_ints>

0010144f <isr126>:
  10144f:	6a 00          	pushl  $0x0
  101451:	6a 7e          	pushl  $0x7e
  101453:	0f a8          	pushl  %gs
  101455:	0f a0          	pushl  %fs
  101457:	06             	pushl  %es
  101458:	1e             	pushl  %ds
  101459:	60             	pusha  
  10145a:	66 b8 10 00    	movw   $0x10,%ax
  10145e:	8e d8          	movw   %ax,%ds
  101460:	8e c0          	movw   %ax,%es
  101462:	8e e0          	movw   %ax,%fs
  101464:	8e e8          	movw   %ax,%gs
  101466:	89 e0          	movl   %esp,%eax
  101468:	50             	pushl  %eax

00101469 <isr126.1>:
  101469:	b8 48 2a 10 00 	movl   $0x102a48,%eax
  10146e:	ff d0          	call   *%eax
  101470:	e9 a3 ec ff ff 	jmp    100118 <all_ints>

00101475 <isr127>:
  101475:	6a 00          	pushl  $0x0
  101477:	6a 7f          	pushl  $0x7f
  101479:	0f a8          	pushl  %gs
  10147b:	0f a0          	pushl  %fs
  10147d:	06             	pushl  %es
  10147e:	1e             	pushl  %ds
  10147f:	60             	pusha  
  101480:	66 b8 10 00    	movw   $0x10,%ax
  101484:	8e d8          	movw   %ax,%ds
  101486:	8e c0          	movw   %ax,%es
  101488:	8e e0          	movw   %ax,%fs
  10148a:	8e e8          	movw   %ax,%gs
  10148c:	89 e0          	movl   %esp,%eax
  10148e:	50             	pushl  %eax

0010148f <isr127.1>:
  10148f:	b8 48 2a 10 00 	movl   $0x102a48,%eax
  101494:	ff d0          	call   *%eax
  101496:	e9 7d ec ff ff 	jmp    100118 <all_ints>

0010149b <isr128>:
  10149b:	6a 00          	pushl  $0x0
  10149d:	6a 80          	pushl  $0xffffff80
  10149f:	0f a8          	pushl  %gs
  1014a1:	0f a0          	pushl  %fs
  1014a3:	06             	pushl  %es
  1014a4:	1e             	pushl  %ds
  1014a5:	60             	pusha  
  1014a6:	66 b8 10 00    	movw   $0x10,%ax
  1014aa:	8e d8          	movw   %ax,%ds
  1014ac:	8e c0          	movw   %ax,%es
  1014ae:	8e e0          	movw   %ax,%fs
  1014b0:	8e e8          	movw   %ax,%gs
  1014b2:	89 e0          	movl   %esp,%eax
  1014b4:	50             	pushl  %eax

001014b5 <isr128.1>:
  1014b5:	b8 48 2a 10 00 	movl   $0x102a48,%eax
  1014ba:	ff d0          	call   *%eax
  1014bc:	e9 57 ec ff ff 	jmp    100118 <all_ints>

001014c1 <isr129>:
  1014c1:	6a 00          	pushl  $0x0
  1014c3:	6a 81          	pushl  $0xffffff81
  1014c5:	0f a8          	pushl  %gs
  1014c7:	0f a0          	pushl  %fs
  1014c9:	06             	pushl  %es
  1014ca:	1e             	pushl  %ds
  1014cb:	60             	pusha  
  1014cc:	66 b8 10 00    	movw   $0x10,%ax
  1014d0:	8e d8          	movw   %ax,%ds
  1014d2:	8e c0          	movw   %ax,%es
  1014d4:	8e e0          	movw   %ax,%fs
  1014d6:	8e e8          	movw   %ax,%gs
  1014d8:	89 e0          	movl   %esp,%eax
  1014da:	50             	pushl  %eax

001014db <isr129.1>:
  1014db:	b8 48 2a 10 00 	movl   $0x102a48,%eax
  1014e0:	ff d0          	call   *%eax
  1014e2:	e9 31 ec ff ff 	jmp    100118 <all_ints>

001014e7 <isr130>:
  1014e7:	6a 00          	pushl  $0x0
  1014e9:	6a 82          	pushl  $0xffffff82
  1014eb:	0f a8          	pushl  %gs
  1014ed:	0f a0          	pushl  %fs
  1014ef:	06             	pushl  %es
  1014f0:	1e             	pushl  %ds
  1014f1:	60             	pusha  
  1014f2:	66 b8 10 00    	movw   $0x10,%ax
  1014f6:	8e d8          	movw   %ax,%ds
  1014f8:	8e c0          	movw   %ax,%es
  1014fa:	8e e0          	movw   %ax,%fs
  1014fc:	8e e8          	movw   %ax,%gs
  1014fe:	89 e0          	movl   %esp,%eax
  101500:	50             	pushl  %eax

00101501 <isr130.1>:
  101501:	b8 48 2a 10 00 	movl   $0x102a48,%eax
  101506:	ff d0          	call   *%eax
  101508:	e9 0b ec ff ff 	jmp    100118 <all_ints>

0010150d <isr131>:
  10150d:	6a 00          	pushl  $0x0
  10150f:	6a 83          	pushl  $0xffffff83
  101511:	0f a8          	pushl  %gs
  101513:	0f a0          	pushl  %fs
  101515:	06             	pushl  %es
  101516:	1e             	pushl  %ds
  101517:	60             	pusha  
  101518:	66 b8 10 00    	movw   $0x10,%ax
  10151c:	8e d8          	movw   %ax,%ds
  10151e:	8e c0          	movw   %ax,%es
  101520:	8e e0          	movw   %ax,%fs
  101522:	8e e8          	movw   %ax,%gs
  101524:	89 e0          	movl   %esp,%eax
  101526:	50             	pushl  %eax

00101527 <isr131.1>:
  101527:	b8 48 2a 10 00 	movl   $0x102a48,%eax
  10152c:	ff d0          	call   *%eax
  10152e:	e9 e5 eb ff ff 	jmp    100118 <all_ints>

00101533 <isr132>:
  101533:	6a 00          	pushl  $0x0
  101535:	6a 84          	pushl  $0xffffff84
  101537:	0f a8          	pushl  %gs
  101539:	0f a0          	pushl  %fs
  10153b:	06             	pushl  %es
  10153c:	1e             	pushl  %ds
  10153d:	60             	pusha  
  10153e:	66 b8 10 00    	movw   $0x10,%ax
  101542:	8e d8          	movw   %ax,%ds
  101544:	8e c0          	movw   %ax,%es
  101546:	8e e0          	movw   %ax,%fs
  101548:	8e e8          	movw   %ax,%gs
  10154a:	89 e0          	movl   %esp,%eax
  10154c:	50             	pushl  %eax

0010154d <isr132.1>:
  10154d:	b8 48 2a 10 00 	movl   $0x102a48,%eax
  101552:	ff d0          	call   *%eax
  101554:	e9 bf eb ff ff 	jmp    100118 <all_ints>

00101559 <isr133>:
  101559:	6a 00          	pushl  $0x0
  10155b:	6a 85          	pushl  $0xffffff85
  10155d:	0f a8          	pushl  %gs
  10155f:	0f a0          	pushl  %fs
  101561:	06             	pushl  %es
  101562:	1e             	pushl  %ds
  101563:	60             	pusha  
  101564:	66 b8 10 00    	movw   $0x10,%ax
  101568:	8e d8          	movw   %ax,%ds
  10156a:	8e c0          	movw   %ax,%es
  10156c:	8e e0          	movw   %ax,%fs
  10156e:	8e e8          	movw   %ax,%gs
  101570:	89 e0          	movl   %esp,%eax
  101572:	50             	pushl  %eax

00101573 <isr133.1>:
  101573:	b8 48 2a 10 00 	movl   $0x102a48,%eax
  101578:	ff d0          	call   *%eax
  10157a:	e9 99 eb ff ff 	jmp    100118 <all_ints>

0010157f <isr134>:
  10157f:	6a 00          	pushl  $0x0
  101581:	6a 86          	pushl  $0xffffff86
  101583:	0f a8          	pushl  %gs
  101585:	0f a0          	pushl  %fs
  101587:	06             	pushl  %es
  101588:	1e             	pushl  %ds
  101589:	60             	pusha  
  10158a:	66 b8 10 00    	movw   $0x10,%ax
  10158e:	8e d8          	movw   %ax,%ds
  101590:	8e c0          	movw   %ax,%es
  101592:	8e e0          	movw   %ax,%fs
  101594:	8e e8          	movw   %ax,%gs
  101596:	89 e0          	movl   %esp,%eax
  101598:	50             	pushl  %eax

00101599 <isr134.1>:
  101599:	b8 48 2a 10 00 	movl   $0x102a48,%eax
  10159e:	ff d0          	call   *%eax
  1015a0:	e9 73 eb ff ff 	jmp    100118 <all_ints>

001015a5 <isr135>:
  1015a5:	6a 00          	pushl  $0x0
  1015a7:	6a 87          	pushl  $0xffffff87
  1015a9:	0f a8          	pushl  %gs
  1015ab:	0f a0          	pushl  %fs
  1015ad:	06             	pushl  %es
  1015ae:	1e             	pushl  %ds
  1015af:	60             	pusha  
  1015b0:	66 b8 10 00    	movw   $0x10,%ax
  1015b4:	8e d8          	movw   %ax,%ds
  1015b6:	8e c0          	movw   %ax,%es
  1015b8:	8e e0          	movw   %ax,%fs
  1015ba:	8e e8          	movw   %ax,%gs
  1015bc:	89 e0          	movl   %esp,%eax
  1015be:	50             	pushl  %eax

001015bf <isr135.1>:
  1015bf:	b8 48 2a 10 00 	movl   $0x102a48,%eax
  1015c4:	ff d0          	call   *%eax
  1015c6:	e9 4d eb ff ff 	jmp    100118 <all_ints>

001015cb <isr136>:
  1015cb:	6a 00          	pushl  $0x0
  1015cd:	6a 88          	pushl  $0xffffff88
  1015cf:	0f a8          	pushl  %gs
  1015d1:	0f a0          	pushl  %fs
  1015d3:	06             	pushl  %es
  1015d4:	1e             	pushl  %ds
  1015d5:	60             	pusha  
  1015d6:	66 b8 10 00    	movw   $0x10,%ax
  1015da:	8e d8          	movw   %ax,%ds
  1015dc:	8e c0          	movw   %ax,%es
  1015de:	8e e0          	movw   %ax,%fs
  1015e0:	8e e8          	movw   %ax,%gs
  1015e2:	89 e0          	movl   %esp,%eax
  1015e4:	50             	pushl  %eax

001015e5 <isr136.1>:
  1015e5:	b8 48 2a 10 00 	movl   $0x102a48,%eax
  1015ea:	ff d0          	call   *%eax
  1015ec:	e9 27 eb ff ff 	jmp    100118 <all_ints>

001015f1 <isr137>:
  1015f1:	6a 00          	pushl  $0x0
  1015f3:	6a 89          	pushl  $0xffffff89
  1015f5:	0f a8          	pushl  %gs
  1015f7:	0f a0          	pushl  %fs
  1015f9:	06             	pushl  %es
  1015fa:	1e             	pushl  %ds
  1015fb:	60             	pusha  
  1015fc:	66 b8 10 00    	movw   $0x10,%ax
  101600:	8e d8          	movw   %ax,%ds
  101602:	8e c0          	movw   %ax,%es
  101604:	8e e0          	movw   %ax,%fs
  101606:	8e e8          	movw   %ax,%gs
  101608:	89 e0          	movl   %esp,%eax
  10160a:	50             	pushl  %eax

0010160b <isr137.1>:
  10160b:	b8 48 2a 10 00 	movl   $0x102a48,%eax
  101610:	ff d0          	call   *%eax
  101612:	e9 01 eb ff ff 	jmp    100118 <all_ints>

00101617 <isr138>:
  101617:	6a 00          	pushl  $0x0
  101619:	6a 8a          	pushl  $0xffffff8a
  10161b:	0f a8          	pushl  %gs
  10161d:	0f a0          	pushl  %fs
  10161f:	06             	pushl  %es
  101620:	1e             	pushl  %ds
  101621:	60             	pusha  
  101622:	66 b8 10 00    	movw   $0x10,%ax
  101626:	8e d8          	movw   %ax,%ds
  101628:	8e c0          	movw   %ax,%es
  10162a:	8e e0          	movw   %ax,%fs
  10162c:	8e e8          	movw   %ax,%gs
  10162e:	89 e0          	movl   %esp,%eax
  101630:	50             	pushl  %eax

00101631 <isr138.1>:
  101631:	b8 48 2a 10 00 	movl   $0x102a48,%eax
  101636:	ff d0          	call   *%eax
  101638:	e9 db ea ff ff 	jmp    100118 <all_ints>

0010163d <isr139>:
  10163d:	6a 00          	pushl  $0x0
  10163f:	6a 8b          	pushl  $0xffffff8b
  101641:	0f a8          	pushl  %gs
  101643:	0f a0          	pushl  %fs
  101645:	06             	pushl  %es
  101646:	1e             	pushl  %ds
  101647:	60             	pusha  
  101648:	66 b8 10 00    	movw   $0x10,%ax
  10164c:	8e d8          	movw   %ax,%ds
  10164e:	8e c0          	movw   %ax,%es
  101650:	8e e0          	movw   %ax,%fs
  101652:	8e e8          	movw   %ax,%gs
  101654:	89 e0          	movl   %esp,%eax
  101656:	50             	pushl  %eax

00101657 <isr139.1>:
  101657:	b8 48 2a 10 00 	movl   $0x102a48,%eax
  10165c:	ff d0          	call   *%eax
  10165e:	e9 b5 ea ff ff 	jmp    100118 <all_ints>

00101663 <isr140>:
  101663:	6a 00          	pushl  $0x0
  101665:	6a 8c          	pushl  $0xffffff8c
  101667:	0f a8          	pushl  %gs
  101669:	0f a0          	pushl  %fs
  10166b:	06             	pushl  %es
  10166c:	1e             	pushl  %ds
  10166d:	60             	pusha  
  10166e:	66 b8 10 00    	movw   $0x10,%ax
  101672:	8e d8          	movw   %ax,%ds
  101674:	8e c0          	movw   %ax,%es
  101676:	8e e0          	movw   %ax,%fs
  101678:	8e e8          	movw   %ax,%gs
  10167a:	89 e0          	movl   %esp,%eax
  10167c:	50             	pushl  %eax

0010167d <isr140.1>:
  10167d:	b8 48 2a 10 00 	movl   $0x102a48,%eax
  101682:	ff d0          	call   *%eax
  101684:	e9 8f ea ff ff 	jmp    100118 <all_ints>

00101689 <isr141>:
  101689:	6a 00          	pushl  $0x0
  10168b:	6a 8d          	pushl  $0xffffff8d
  10168d:	0f a8          	pushl  %gs
  10168f:	0f a0          	pushl  %fs
  101691:	06             	pushl  %es
  101692:	1e             	pushl  %ds
  101693:	60             	pusha  
  101694:	66 b8 10 00    	movw   $0x10,%ax
  101698:	8e d8          	movw   %ax,%ds
  10169a:	8e c0          	movw   %ax,%es
  10169c:	8e e0          	movw   %ax,%fs
  10169e:	8e e8          	movw   %ax,%gs
  1016a0:	89 e0          	movl   %esp,%eax
  1016a2:	50             	pushl  %eax

001016a3 <isr141.1>:
  1016a3:	b8 48 2a 10 00 	movl   $0x102a48,%eax
  1016a8:	ff d0          	call   *%eax
  1016aa:	e9 69 ea ff ff 	jmp    100118 <all_ints>

001016af <isr142>:
  1016af:	6a 00          	pushl  $0x0
  1016b1:	6a 8e          	pushl  $0xffffff8e
  1016b3:	0f a8          	pushl  %gs
  1016b5:	0f a0          	pushl  %fs
  1016b7:	06             	pushl  %es
  1016b8:	1e             	pushl  %ds
  1016b9:	60             	pusha  
  1016ba:	66 b8 10 00    	movw   $0x10,%ax
  1016be:	8e d8          	movw   %ax,%ds
  1016c0:	8e c0          	movw   %ax,%es
  1016c2:	8e e0          	movw   %ax,%fs
  1016c4:	8e e8          	movw   %ax,%gs
  1016c6:	89 e0          	movl   %esp,%eax
  1016c8:	50             	pushl  %eax

001016c9 <isr142.1>:
  1016c9:	b8 48 2a 10 00 	movl   $0x102a48,%eax
  1016ce:	ff d0          	call   *%eax
  1016d0:	e9 43 ea ff ff 	jmp    100118 <all_ints>

001016d5 <isr143>:
  1016d5:	6a 00          	pushl  $0x0
  1016d7:	6a 8f          	pushl  $0xffffff8f
  1016d9:	0f a8          	pushl  %gs
  1016db:	0f a0          	pushl  %fs
  1016dd:	06             	pushl  %es
  1016de:	1e             	pushl  %ds
  1016df:	60             	pusha  
  1016e0:	66 b8 10 00    	movw   $0x10,%ax
  1016e4:	8e d8          	movw   %ax,%ds
  1016e6:	8e c0          	movw   %ax,%es
  1016e8:	8e e0          	movw   %ax,%fs
  1016ea:	8e e8          	movw   %ax,%gs
  1016ec:	89 e0          	movl   %esp,%eax
  1016ee:	50             	pushl  %eax

001016ef <isr143.1>:
  1016ef:	b8 48 2a 10 00 	movl   $0x102a48,%eax
  1016f4:	ff d0          	call   *%eax
  1016f6:	e9 1d ea ff ff 	jmp    100118 <all_ints>

001016fb <isr144>:
  1016fb:	6a 00          	pushl  $0x0
  1016fd:	6a 90          	pushl  $0xffffff90
  1016ff:	0f a8          	pushl  %gs
  101701:	0f a0          	pushl  %fs
  101703:	06             	pushl  %es
  101704:	1e             	pushl  %ds
  101705:	60             	pusha  
  101706:	66 b8 10 00    	movw   $0x10,%ax
  10170a:	8e d8          	movw   %ax,%ds
  10170c:	8e c0          	movw   %ax,%es
  10170e:	8e e0          	movw   %ax,%fs
  101710:	8e e8          	movw   %ax,%gs
  101712:	89 e0          	movl   %esp,%eax
  101714:	50             	pushl  %eax

00101715 <isr144.1>:
  101715:	b8 48 2a 10 00 	movl   $0x102a48,%eax
  10171a:	ff d0          	call   *%eax
  10171c:	e9 f7 e9 ff ff 	jmp    100118 <all_ints>

00101721 <isr145>:
  101721:	6a 00          	pushl  $0x0
  101723:	6a 91          	pushl  $0xffffff91
  101725:	0f a8          	pushl  %gs
  101727:	0f a0          	pushl  %fs
  101729:	06             	pushl  %es
  10172a:	1e             	pushl  %ds
  10172b:	60             	pusha  
  10172c:	66 b8 10 00    	movw   $0x10,%ax
  101730:	8e d8          	movw   %ax,%ds
  101732:	8e c0          	movw   %ax,%es
  101734:	8e e0          	movw   %ax,%fs
  101736:	8e e8          	movw   %ax,%gs
  101738:	89 e0          	movl   %esp,%eax
  10173a:	50             	pushl  %eax

0010173b <isr145.1>:
  10173b:	b8 48 2a 10 00 	movl   $0x102a48,%eax
  101740:	ff d0          	call   *%eax
  101742:	e9 d1 e9 ff ff 	jmp    100118 <all_ints>

00101747 <isr146>:
  101747:	6a 00          	pushl  $0x0
  101749:	6a 92          	pushl  $0xffffff92
  10174b:	0f a8          	pushl  %gs
  10174d:	0f a0          	pushl  %fs
  10174f:	06             	pushl  %es
  101750:	1e             	pushl  %ds
  101751:	60             	pusha  
  101752:	66 b8 10 00    	movw   $0x10,%ax
  101756:	8e d8          	movw   %ax,%ds
  101758:	8e c0          	movw   %ax,%es
  10175a:	8e e0          	movw   %ax,%fs
  10175c:	8e e8          	movw   %ax,%gs
  10175e:	89 e0          	movl   %esp,%eax
  101760:	50             	pushl  %eax

00101761 <isr146.1>:
  101761:	b8 48 2a 10 00 	movl   $0x102a48,%eax
  101766:	ff d0          	call   *%eax
  101768:	e9 ab e9 ff ff 	jmp    100118 <all_ints>

0010176d <isr147>:
  10176d:	6a 00          	pushl  $0x0
  10176f:	6a 93          	pushl  $0xffffff93
  101771:	0f a8          	pushl  %gs
  101773:	0f a0          	pushl  %fs
  101775:	06             	pushl  %es
  101776:	1e             	pushl  %ds
  101777:	60             	pusha  
  101778:	66 b8 10 00    	movw   $0x10,%ax
  10177c:	8e d8          	movw   %ax,%ds
  10177e:	8e c0          	movw   %ax,%es
  101780:	8e e0          	movw   %ax,%fs
  101782:	8e e8          	movw   %ax,%gs
  101784:	89 e0          	movl   %esp,%eax
  101786:	50             	pushl  %eax

00101787 <isr147.1>:
  101787:	b8 48 2a 10 00 	movl   $0x102a48,%eax
  10178c:	ff d0          	call   *%eax
  10178e:	e9 85 e9 ff ff 	jmp    100118 <all_ints>

00101793 <isr148>:
  101793:	6a 00          	pushl  $0x0
  101795:	6a 94          	pushl  $0xffffff94
  101797:	0f a8          	pushl  %gs
  101799:	0f a0          	pushl  %fs
  10179b:	06             	pushl  %es
  10179c:	1e             	pushl  %ds
  10179d:	60             	pusha  
  10179e:	66 b8 10 00    	movw   $0x10,%ax
  1017a2:	8e d8          	movw   %ax,%ds
  1017a4:	8e c0          	movw   %ax,%es
  1017a6:	8e e0          	movw   %ax,%fs
  1017a8:	8e e8          	movw   %ax,%gs
  1017aa:	89 e0          	movl   %esp,%eax
  1017ac:	50             	pushl  %eax

001017ad <isr148.1>:
  1017ad:	b8 48 2a 10 00 	movl   $0x102a48,%eax
  1017b2:	ff d0          	call   *%eax
  1017b4:	e9 5f e9 ff ff 	jmp    100118 <all_ints>

001017b9 <isr149>:
  1017b9:	6a 00          	pushl  $0x0
  1017bb:	6a 95          	pushl  $0xffffff95
  1017bd:	0f a8          	pushl  %gs
  1017bf:	0f a0          	pushl  %fs
  1017c1:	06             	pushl  %es
  1017c2:	1e             	pushl  %ds
  1017c3:	60             	pusha  
  1017c4:	66 b8 10 00    	movw   $0x10,%ax
  1017c8:	8e d8          	movw   %ax,%ds
  1017ca:	8e c0          	movw   %ax,%es
  1017cc:	8e e0          	movw   %ax,%fs
  1017ce:	8e e8          	movw   %ax,%gs
  1017d0:	89 e0          	movl   %esp,%eax
  1017d2:	50             	pushl  %eax

001017d3 <isr149.1>:
  1017d3:	b8 48 2a 10 00 	movl   $0x102a48,%eax
  1017d8:	ff d0          	call   *%eax
  1017da:	e9 39 e9 ff ff 	jmp    100118 <all_ints>

001017df <isr150>:
  1017df:	6a 00          	pushl  $0x0
  1017e1:	6a 96          	pushl  $0xffffff96
  1017e3:	0f a8          	pushl  %gs
  1017e5:	0f a0          	pushl  %fs
  1017e7:	06             	pushl  %es
  1017e8:	1e             	pushl  %ds
  1017e9:	60             	pusha  
  1017ea:	66 b8 10 00    	movw   $0x10,%ax
  1017ee:	8e d8          	movw   %ax,%ds
  1017f0:	8e c0          	movw   %ax,%es
  1017f2:	8e e0          	movw   %ax,%fs
  1017f4:	8e e8          	movw   %ax,%gs
  1017f6:	89 e0          	movl   %esp,%eax
  1017f8:	50             	pushl  %eax

001017f9 <isr150.1>:
  1017f9:	b8 48 2a 10 00 	movl   $0x102a48,%eax
  1017fe:	ff d0          	call   *%eax
  101800:	e9 13 e9 ff ff 	jmp    100118 <all_ints>

00101805 <isr151>:
  101805:	6a 00          	pushl  $0x0
  101807:	6a 97          	pushl  $0xffffff97
  101809:	0f a8          	pushl  %gs
  10180b:	0f a0          	pushl  %fs
  10180d:	06             	pushl  %es
  10180e:	1e             	pushl  %ds
  10180f:	60             	pusha  
  101810:	66 b8 10 00    	movw   $0x10,%ax
  101814:	8e d8          	movw   %ax,%ds
  101816:	8e c0          	movw   %ax,%es
  101818:	8e e0          	movw   %ax,%fs
  10181a:	8e e8          	movw   %ax,%gs
  10181c:	89 e0          	movl   %esp,%eax
  10181e:	50             	pushl  %eax

0010181f <isr151.1>:
  10181f:	b8 48 2a 10 00 	movl   $0x102a48,%eax
  101824:	ff d0          	call   *%eax
  101826:	e9 ed e8 ff ff 	jmp    100118 <all_ints>

0010182b <isr152>:
  10182b:	6a 00          	pushl  $0x0
  10182d:	6a 98          	pushl  $0xffffff98
  10182f:	0f a8          	pushl  %gs
  101831:	0f a0          	pushl  %fs
  101833:	06             	pushl  %es
  101834:	1e             	pushl  %ds
  101835:	60             	pusha  
  101836:	66 b8 10 00    	movw   $0x10,%ax
  10183a:	8e d8          	movw   %ax,%ds
  10183c:	8e c0          	movw   %ax,%es
  10183e:	8e e0          	movw   %ax,%fs
  101840:	8e e8          	movw   %ax,%gs
  101842:	89 e0          	movl   %esp,%eax
  101844:	50             	pushl  %eax

00101845 <isr152.1>:
  101845:	b8 48 2a 10 00 	movl   $0x102a48,%eax
  10184a:	ff d0          	call   *%eax
  10184c:	e9 c7 e8 ff ff 	jmp    100118 <all_ints>

00101851 <isr153>:
  101851:	6a 00          	pushl  $0x0
  101853:	6a 99          	pushl  $0xffffff99
  101855:	0f a8          	pushl  %gs
  101857:	0f a0          	pushl  %fs
  101859:	06             	pushl  %es
  10185a:	1e             	pushl  %ds
  10185b:	60             	pusha  
  10185c:	66 b8 10 00    	movw   $0x10,%ax
  101860:	8e d8          	movw   %ax,%ds
  101862:	8e c0          	movw   %ax,%es
  101864:	8e e0          	movw   %ax,%fs
  101866:	8e e8          	movw   %ax,%gs
  101868:	89 e0          	movl   %esp,%eax
  10186a:	50             	pushl  %eax

0010186b <isr153.1>:
  10186b:	b8 48 2a 10 00 	movl   $0x102a48,%eax
  101870:	ff d0          	call   *%eax
  101872:	e9 a1 e8 ff ff 	jmp    100118 <all_ints>

00101877 <isr154>:
  101877:	6a 00          	pushl  $0x0
  101879:	6a 9a          	pushl  $0xffffff9a
  10187b:	0f a8          	pushl  %gs
  10187d:	0f a0          	pushl  %fs
  10187f:	06             	pushl  %es
  101880:	1e             	pushl  %ds
  101881:	60             	pusha  
  101882:	66 b8 10 00    	movw   $0x10,%ax
  101886:	8e d8          	movw   %ax,%ds
  101888:	8e c0          	movw   %ax,%es
  10188a:	8e e0          	movw   %ax,%fs
  10188c:	8e e8          	movw   %ax,%gs
  10188e:	89 e0          	movl   %esp,%eax
  101890:	50             	pushl  %eax

00101891 <isr154.1>:
  101891:	b8 48 2a 10 00 	movl   $0x102a48,%eax
  101896:	ff d0          	call   *%eax
  101898:	e9 7b e8 ff ff 	jmp    100118 <all_ints>

0010189d <isr155>:
  10189d:	6a 00          	pushl  $0x0
  10189f:	6a 9b          	pushl  $0xffffff9b
  1018a1:	0f a8          	pushl  %gs
  1018a3:	0f a0          	pushl  %fs
  1018a5:	06             	pushl  %es
  1018a6:	1e             	pushl  %ds
  1018a7:	60             	pusha  
  1018a8:	66 b8 10 00    	movw   $0x10,%ax
  1018ac:	8e d8          	movw   %ax,%ds
  1018ae:	8e c0          	movw   %ax,%es
  1018b0:	8e e0          	movw   %ax,%fs
  1018b2:	8e e8          	movw   %ax,%gs
  1018b4:	89 e0          	movl   %esp,%eax
  1018b6:	50             	pushl  %eax

001018b7 <isr155.1>:
  1018b7:	b8 48 2a 10 00 	movl   $0x102a48,%eax
  1018bc:	ff d0          	call   *%eax
  1018be:	e9 55 e8 ff ff 	jmp    100118 <all_ints>

001018c3 <isr156>:
  1018c3:	6a 00          	pushl  $0x0
  1018c5:	6a 9c          	pushl  $0xffffff9c
  1018c7:	0f a8          	pushl  %gs
  1018c9:	0f a0          	pushl  %fs
  1018cb:	06             	pushl  %es
  1018cc:	1e             	pushl  %ds
  1018cd:	60             	pusha  
  1018ce:	66 b8 10 00    	movw   $0x10,%ax
  1018d2:	8e d8          	movw   %ax,%ds
  1018d4:	8e c0          	movw   %ax,%es
  1018d6:	8e e0          	movw   %ax,%fs
  1018d8:	8e e8          	movw   %ax,%gs
  1018da:	89 e0          	movl   %esp,%eax
  1018dc:	50             	pushl  %eax

001018dd <isr156.1>:
  1018dd:	b8 48 2a 10 00 	movl   $0x102a48,%eax
  1018e2:	ff d0          	call   *%eax
  1018e4:	e9 2f e8 ff ff 	jmp    100118 <all_ints>

001018e9 <isr157>:
  1018e9:	6a 00          	pushl  $0x0
  1018eb:	6a 9d          	pushl  $0xffffff9d
  1018ed:	0f a8          	pushl  %gs
  1018ef:	0f a0          	pushl  %fs
  1018f1:	06             	pushl  %es
  1018f2:	1e             	pushl  %ds
  1018f3:	60             	pusha  
  1018f4:	66 b8 10 00    	movw   $0x10,%ax
  1018f8:	8e d8          	movw   %ax,%ds
  1018fa:	8e c0          	movw   %ax,%es
  1018fc:	8e e0          	movw   %ax,%fs
  1018fe:	8e e8          	movw   %ax,%gs
  101900:	89 e0          	movl   %esp,%eax
  101902:	50             	pushl  %eax

00101903 <isr157.1>:
  101903:	b8 48 2a 10 00 	movl   $0x102a48,%eax
  101908:	ff d0          	call   *%eax
  10190a:	e9 09 e8 ff ff 	jmp    100118 <all_ints>

0010190f <isr158>:
  10190f:	6a 00          	pushl  $0x0
  101911:	6a 9e          	pushl  $0xffffff9e
  101913:	0f a8          	pushl  %gs
  101915:	0f a0          	pushl  %fs
  101917:	06             	pushl  %es
  101918:	1e             	pushl  %ds
  101919:	60             	pusha  
  10191a:	66 b8 10 00    	movw   $0x10,%ax
  10191e:	8e d8          	movw   %ax,%ds
  101920:	8e c0          	movw   %ax,%es
  101922:	8e e0          	movw   %ax,%fs
  101924:	8e e8          	movw   %ax,%gs
  101926:	89 e0          	movl   %esp,%eax
  101928:	50             	pushl  %eax

00101929 <isr158.1>:
  101929:	b8 48 2a 10 00 	movl   $0x102a48,%eax
  10192e:	ff d0          	call   *%eax
  101930:	e9 e3 e7 ff ff 	jmp    100118 <all_ints>

00101935 <isr159>:
  101935:	6a 00          	pushl  $0x0
  101937:	6a 9f          	pushl  $0xffffff9f
  101939:	0f a8          	pushl  %gs
  10193b:	0f a0          	pushl  %fs
  10193d:	06             	pushl  %es
  10193e:	1e             	pushl  %ds
  10193f:	60             	pusha  
  101940:	66 b8 10 00    	movw   $0x10,%ax
  101944:	8e d8          	movw   %ax,%ds
  101946:	8e c0          	movw   %ax,%es
  101948:	8e e0          	movw   %ax,%fs
  10194a:	8e e8          	movw   %ax,%gs
  10194c:	89 e0          	movl   %esp,%eax
  10194e:	50             	pushl  %eax

0010194f <isr159.1>:
  10194f:	b8 48 2a 10 00 	movl   $0x102a48,%eax
  101954:	ff d0          	call   *%eax
  101956:	e9 bd e7 ff ff 	jmp    100118 <all_ints>

0010195b <isr160>:
  10195b:	6a 00          	pushl  $0x0
  10195d:	6a a0          	pushl  $0xffffffa0
  10195f:	0f a8          	pushl  %gs
  101961:	0f a0          	pushl  %fs
  101963:	06             	pushl  %es
  101964:	1e             	pushl  %ds
  101965:	60             	pusha  
  101966:	66 b8 10 00    	movw   $0x10,%ax
  10196a:	8e d8          	movw   %ax,%ds
  10196c:	8e c0          	movw   %ax,%es
  10196e:	8e e0          	movw   %ax,%fs
  101970:	8e e8          	movw   %ax,%gs
  101972:	89 e0          	movl   %esp,%eax
  101974:	50             	pushl  %eax

00101975 <isr160.1>:
  101975:	b8 48 2a 10 00 	movl   $0x102a48,%eax
  10197a:	ff d0          	call   *%eax
  10197c:	e9 97 e7 ff ff 	jmp    100118 <all_ints>

00101981 <isr161>:
  101981:	6a 00          	pushl  $0x0
  101983:	6a a1          	pushl  $0xffffffa1
  101985:	0f a8          	pushl  %gs
  101987:	0f a0          	pushl  %fs
  101989:	06             	pushl  %es
  10198a:	1e             	pushl  %ds
  10198b:	60             	pusha  
  10198c:	66 b8 10 00    	movw   $0x10,%ax
  101990:	8e d8          	movw   %ax,%ds
  101992:	8e c0          	movw   %ax,%es
  101994:	8e e0          	movw   %ax,%fs
  101996:	8e e8          	movw   %ax,%gs
  101998:	89 e0          	movl   %esp,%eax
  10199a:	50             	pushl  %eax

0010199b <isr161.1>:
  10199b:	b8 48 2a 10 00 	movl   $0x102a48,%eax
  1019a0:	ff d0          	call   *%eax
  1019a2:	e9 71 e7 ff ff 	jmp    100118 <all_ints>

001019a7 <isr162>:
  1019a7:	6a 00          	pushl  $0x0
  1019a9:	6a a2          	pushl  $0xffffffa2
  1019ab:	0f a8          	pushl  %gs
  1019ad:	0f a0          	pushl  %fs
  1019af:	06             	pushl  %es
  1019b0:	1e             	pushl  %ds
  1019b1:	60             	pusha  
  1019b2:	66 b8 10 00    	movw   $0x10,%ax
  1019b6:	8e d8          	movw   %ax,%ds
  1019b8:	8e c0          	movw   %ax,%es
  1019ba:	8e e0          	movw   %ax,%fs
  1019bc:	8e e8          	movw   %ax,%gs
  1019be:	89 e0          	movl   %esp,%eax
  1019c0:	50             	pushl  %eax

001019c1 <isr162.1>:
  1019c1:	b8 48 2a 10 00 	movl   $0x102a48,%eax
  1019c6:	ff d0          	call   *%eax
  1019c8:	e9 4b e7 ff ff 	jmp    100118 <all_ints>

001019cd <isr163>:
  1019cd:	6a 00          	pushl  $0x0
  1019cf:	6a a3          	pushl  $0xffffffa3
  1019d1:	0f a8          	pushl  %gs
  1019d3:	0f a0          	pushl  %fs
  1019d5:	06             	pushl  %es
  1019d6:	1e             	pushl  %ds
  1019d7:	60             	pusha  
  1019d8:	66 b8 10 00    	movw   $0x10,%ax
  1019dc:	8e d8          	movw   %ax,%ds
  1019de:	8e c0          	movw   %ax,%es
  1019e0:	8e e0          	movw   %ax,%fs
  1019e2:	8e e8          	movw   %ax,%gs
  1019e4:	89 e0          	movl   %esp,%eax
  1019e6:	50             	pushl  %eax

001019e7 <isr163.1>:
  1019e7:	b8 48 2a 10 00 	movl   $0x102a48,%eax
  1019ec:	ff d0          	call   *%eax
  1019ee:	e9 25 e7 ff ff 	jmp    100118 <all_ints>

001019f3 <isr164>:
  1019f3:	6a 00          	pushl  $0x0
  1019f5:	6a a4          	pushl  $0xffffffa4
  1019f7:	0f a8          	pushl  %gs
  1019f9:	0f a0          	pushl  %fs
  1019fb:	06             	pushl  %es
  1019fc:	1e             	pushl  %ds
  1019fd:	60             	pusha  
  1019fe:	66 b8 10 00    	movw   $0x10,%ax
  101a02:	8e d8          	movw   %ax,%ds
  101a04:	8e c0          	movw   %ax,%es
  101a06:	8e e0          	movw   %ax,%fs
  101a08:	8e e8          	movw   %ax,%gs
  101a0a:	89 e0          	movl   %esp,%eax
  101a0c:	50             	pushl  %eax

00101a0d <isr164.1>:
  101a0d:	b8 48 2a 10 00 	movl   $0x102a48,%eax
  101a12:	ff d0          	call   *%eax
  101a14:	e9 ff e6 ff ff 	jmp    100118 <all_ints>

00101a19 <isr165>:
  101a19:	6a 00          	pushl  $0x0
  101a1b:	6a a5          	pushl  $0xffffffa5
  101a1d:	0f a8          	pushl  %gs
  101a1f:	0f a0          	pushl  %fs
  101a21:	06             	pushl  %es
  101a22:	1e             	pushl  %ds
  101a23:	60             	pusha  
  101a24:	66 b8 10 00    	movw   $0x10,%ax
  101a28:	8e d8          	movw   %ax,%ds
  101a2a:	8e c0          	movw   %ax,%es
  101a2c:	8e e0          	movw   %ax,%fs
  101a2e:	8e e8          	movw   %ax,%gs
  101a30:	89 e0          	movl   %esp,%eax
  101a32:	50             	pushl  %eax

00101a33 <isr165.1>:
  101a33:	b8 48 2a 10 00 	movl   $0x102a48,%eax
  101a38:	ff d0          	call   *%eax
  101a3a:	e9 d9 e6 ff ff 	jmp    100118 <all_ints>

00101a3f <isr166>:
  101a3f:	6a 00          	pushl  $0x0
  101a41:	6a a6          	pushl  $0xffffffa6
  101a43:	0f a8          	pushl  %gs
  101a45:	0f a0          	pushl  %fs
  101a47:	06             	pushl  %es
  101a48:	1e             	pushl  %ds
  101a49:	60             	pusha  
  101a4a:	66 b8 10 00    	movw   $0x10,%ax
  101a4e:	8e d8          	movw   %ax,%ds
  101a50:	8e c0          	movw   %ax,%es
  101a52:	8e e0          	movw   %ax,%fs
  101a54:	8e e8          	movw   %ax,%gs
  101a56:	89 e0          	movl   %esp,%eax
  101a58:	50             	pushl  %eax

00101a59 <isr166.1>:
  101a59:	b8 48 2a 10 00 	movl   $0x102a48,%eax
  101a5e:	ff d0          	call   *%eax
  101a60:	e9 b3 e6 ff ff 	jmp    100118 <all_ints>

00101a65 <isr167>:
  101a65:	6a 00          	pushl  $0x0
  101a67:	6a a7          	pushl  $0xffffffa7
  101a69:	0f a8          	pushl  %gs
  101a6b:	0f a0          	pushl  %fs
  101a6d:	06             	pushl  %es
  101a6e:	1e             	pushl  %ds
  101a6f:	60             	pusha  
  101a70:	66 b8 10 00    	movw   $0x10,%ax
  101a74:	8e d8          	movw   %ax,%ds
  101a76:	8e c0          	movw   %ax,%es
  101a78:	8e e0          	movw   %ax,%fs
  101a7a:	8e e8          	movw   %ax,%gs
  101a7c:	89 e0          	movl   %esp,%eax
  101a7e:	50             	pushl  %eax

00101a7f <isr167.1>:
  101a7f:	b8 48 2a 10 00 	movl   $0x102a48,%eax
  101a84:	ff d0          	call   *%eax
  101a86:	e9 8d e6 ff ff 	jmp    100118 <all_ints>

00101a8b <isr168>:
  101a8b:	6a 00          	pushl  $0x0
  101a8d:	6a a8          	pushl  $0xffffffa8
  101a8f:	0f a8          	pushl  %gs
  101a91:	0f a0          	pushl  %fs
  101a93:	06             	pushl  %es
  101a94:	1e             	pushl  %ds
  101a95:	60             	pusha  
  101a96:	66 b8 10 00    	movw   $0x10,%ax
  101a9a:	8e d8          	movw   %ax,%ds
  101a9c:	8e c0          	movw   %ax,%es
  101a9e:	8e e0          	movw   %ax,%fs
  101aa0:	8e e8          	movw   %ax,%gs
  101aa2:	89 e0          	movl   %esp,%eax
  101aa4:	50             	pushl  %eax

00101aa5 <isr168.1>:
  101aa5:	b8 48 2a 10 00 	movl   $0x102a48,%eax
  101aaa:	ff d0          	call   *%eax
  101aac:	e9 67 e6 ff ff 	jmp    100118 <all_ints>

00101ab1 <isr169>:
  101ab1:	6a 00          	pushl  $0x0
  101ab3:	6a a9          	pushl  $0xffffffa9
  101ab5:	0f a8          	pushl  %gs
  101ab7:	0f a0          	pushl  %fs
  101ab9:	06             	pushl  %es
  101aba:	1e             	pushl  %ds
  101abb:	60             	pusha  
  101abc:	66 b8 10 00    	movw   $0x10,%ax
  101ac0:	8e d8          	movw   %ax,%ds
  101ac2:	8e c0          	movw   %ax,%es
  101ac4:	8e e0          	movw   %ax,%fs
  101ac6:	8e e8          	movw   %ax,%gs
  101ac8:	89 e0          	movl   %esp,%eax
  101aca:	50             	pushl  %eax

00101acb <isr169.1>:
  101acb:	b8 48 2a 10 00 	movl   $0x102a48,%eax
  101ad0:	ff d0          	call   *%eax
  101ad2:	e9 41 e6 ff ff 	jmp    100118 <all_ints>

00101ad7 <isr170>:
  101ad7:	6a 00          	pushl  $0x0
  101ad9:	6a aa          	pushl  $0xffffffaa
  101adb:	0f a8          	pushl  %gs
  101add:	0f a0          	pushl  %fs
  101adf:	06             	pushl  %es
  101ae0:	1e             	pushl  %ds
  101ae1:	60             	pusha  
  101ae2:	66 b8 10 00    	movw   $0x10,%ax
  101ae6:	8e d8          	movw   %ax,%ds
  101ae8:	8e c0          	movw   %ax,%es
  101aea:	8e e0          	movw   %ax,%fs
  101aec:	8e e8          	movw   %ax,%gs
  101aee:	89 e0          	movl   %esp,%eax
  101af0:	50             	pushl  %eax

00101af1 <isr170.1>:
  101af1:	b8 48 2a 10 00 	movl   $0x102a48,%eax
  101af6:	ff d0          	call   *%eax
  101af8:	e9 1b e6 ff ff 	jmp    100118 <all_ints>

00101afd <isr171>:
  101afd:	6a 00          	pushl  $0x0
  101aff:	6a ab          	pushl  $0xffffffab
  101b01:	0f a8          	pushl  %gs
  101b03:	0f a0          	pushl  %fs
  101b05:	06             	pushl  %es
  101b06:	1e             	pushl  %ds
  101b07:	60             	pusha  
  101b08:	66 b8 10 00    	movw   $0x10,%ax
  101b0c:	8e d8          	movw   %ax,%ds
  101b0e:	8e c0          	movw   %ax,%es
  101b10:	8e e0          	movw   %ax,%fs
  101b12:	8e e8          	movw   %ax,%gs
  101b14:	89 e0          	movl   %esp,%eax
  101b16:	50             	pushl  %eax

00101b17 <isr171.1>:
  101b17:	b8 48 2a 10 00 	movl   $0x102a48,%eax
  101b1c:	ff d0          	call   *%eax
  101b1e:	e9 f5 e5 ff ff 	jmp    100118 <all_ints>

00101b23 <isr172>:
  101b23:	6a 00          	pushl  $0x0
  101b25:	6a ac          	pushl  $0xffffffac
  101b27:	0f a8          	pushl  %gs
  101b29:	0f a0          	pushl  %fs
  101b2b:	06             	pushl  %es
  101b2c:	1e             	pushl  %ds
  101b2d:	60             	pusha  
  101b2e:	66 b8 10 00    	movw   $0x10,%ax
  101b32:	8e d8          	movw   %ax,%ds
  101b34:	8e c0          	movw   %ax,%es
  101b36:	8e e0          	movw   %ax,%fs
  101b38:	8e e8          	movw   %ax,%gs
  101b3a:	89 e0          	movl   %esp,%eax
  101b3c:	50             	pushl  %eax

00101b3d <isr172.1>:
  101b3d:	b8 48 2a 10 00 	movl   $0x102a48,%eax
  101b42:	ff d0          	call   *%eax
  101b44:	e9 cf e5 ff ff 	jmp    100118 <all_ints>

00101b49 <isr173>:
  101b49:	6a 00          	pushl  $0x0
  101b4b:	6a ad          	pushl  $0xffffffad
  101b4d:	0f a8          	pushl  %gs
  101b4f:	0f a0          	pushl  %fs
  101b51:	06             	pushl  %es
  101b52:	1e             	pushl  %ds
  101b53:	60             	pusha  
  101b54:	66 b8 10 00    	movw   $0x10,%ax
  101b58:	8e d8          	movw   %ax,%ds
  101b5a:	8e c0          	movw   %ax,%es
  101b5c:	8e e0          	movw   %ax,%fs
  101b5e:	8e e8          	movw   %ax,%gs
  101b60:	89 e0          	movl   %esp,%eax
  101b62:	50             	pushl  %eax

00101b63 <isr173.1>:
  101b63:	b8 48 2a 10 00 	movl   $0x102a48,%eax
  101b68:	ff d0          	call   *%eax
  101b6a:	e9 a9 e5 ff ff 	jmp    100118 <all_ints>

00101b6f <isr174>:
  101b6f:	6a 00          	pushl  $0x0
  101b71:	6a ae          	pushl  $0xffffffae
  101b73:	0f a8          	pushl  %gs
  101b75:	0f a0          	pushl  %fs
  101b77:	06             	pushl  %es
  101b78:	1e             	pushl  %ds
  101b79:	60             	pusha  
  101b7a:	66 b8 10 00    	movw   $0x10,%ax
  101b7e:	8e d8          	movw   %ax,%ds
  101b80:	8e c0          	movw   %ax,%es
  101b82:	8e e0          	movw   %ax,%fs
  101b84:	8e e8          	movw   %ax,%gs
  101b86:	89 e0          	movl   %esp,%eax
  101b88:	50             	pushl  %eax

00101b89 <isr174.1>:
  101b89:	b8 48 2a 10 00 	movl   $0x102a48,%eax
  101b8e:	ff d0          	call   *%eax
  101b90:	e9 83 e5 ff ff 	jmp    100118 <all_ints>

00101b95 <isr175>:
  101b95:	6a 00          	pushl  $0x0
  101b97:	6a af          	pushl  $0xffffffaf
  101b99:	0f a8          	pushl  %gs
  101b9b:	0f a0          	pushl  %fs
  101b9d:	06             	pushl  %es
  101b9e:	1e             	pushl  %ds
  101b9f:	60             	pusha  
  101ba0:	66 b8 10 00    	movw   $0x10,%ax
  101ba4:	8e d8          	movw   %ax,%ds
  101ba6:	8e c0          	movw   %ax,%es
  101ba8:	8e e0          	movw   %ax,%fs
  101baa:	8e e8          	movw   %ax,%gs
  101bac:	89 e0          	movl   %esp,%eax
  101bae:	50             	pushl  %eax

00101baf <isr175.1>:
  101baf:	b8 48 2a 10 00 	movl   $0x102a48,%eax
  101bb4:	ff d0          	call   *%eax
  101bb6:	e9 5d e5 ff ff 	jmp    100118 <all_ints>

00101bbb <isr176>:
  101bbb:	6a 00          	pushl  $0x0
  101bbd:	6a b0          	pushl  $0xffffffb0
  101bbf:	0f a8          	pushl  %gs
  101bc1:	0f a0          	pushl  %fs
  101bc3:	06             	pushl  %es
  101bc4:	1e             	pushl  %ds
  101bc5:	60             	pusha  
  101bc6:	66 b8 10 00    	movw   $0x10,%ax
  101bca:	8e d8          	movw   %ax,%ds
  101bcc:	8e c0          	movw   %ax,%es
  101bce:	8e e0          	movw   %ax,%fs
  101bd0:	8e e8          	movw   %ax,%gs
  101bd2:	89 e0          	movl   %esp,%eax
  101bd4:	50             	pushl  %eax

00101bd5 <isr176.1>:
  101bd5:	b8 48 2a 10 00 	movl   $0x102a48,%eax
  101bda:	ff d0          	call   *%eax
  101bdc:	e9 37 e5 ff ff 	jmp    100118 <all_ints>

00101be1 <isr177>:
  101be1:	6a 00          	pushl  $0x0
  101be3:	6a b1          	pushl  $0xffffffb1
  101be5:	0f a8          	pushl  %gs
  101be7:	0f a0          	pushl  %fs
  101be9:	06             	pushl  %es
  101bea:	1e             	pushl  %ds
  101beb:	60             	pusha  
  101bec:	66 b8 10 00    	movw   $0x10,%ax
  101bf0:	8e d8          	movw   %ax,%ds
  101bf2:	8e c0          	movw   %ax,%es
  101bf4:	8e e0          	movw   %ax,%fs
  101bf6:	8e e8          	movw   %ax,%gs
  101bf8:	89 e0          	movl   %esp,%eax
  101bfa:	50             	pushl  %eax

00101bfb <isr177.1>:
  101bfb:	b8 48 2a 10 00 	movl   $0x102a48,%eax
  101c00:	ff d0          	call   *%eax
  101c02:	e9 11 e5 ff ff 	jmp    100118 <all_ints>

00101c07 <isr178>:
  101c07:	6a 00          	pushl  $0x0
  101c09:	6a b2          	pushl  $0xffffffb2
  101c0b:	0f a8          	pushl  %gs
  101c0d:	0f a0          	pushl  %fs
  101c0f:	06             	pushl  %es
  101c10:	1e             	pushl  %ds
  101c11:	60             	pusha  
  101c12:	66 b8 10 00    	movw   $0x10,%ax
  101c16:	8e d8          	movw   %ax,%ds
  101c18:	8e c0          	movw   %ax,%es
  101c1a:	8e e0          	movw   %ax,%fs
  101c1c:	8e e8          	movw   %ax,%gs
  101c1e:	89 e0          	movl   %esp,%eax
  101c20:	50             	pushl  %eax

00101c21 <isr178.1>:
  101c21:	b8 48 2a 10 00 	movl   $0x102a48,%eax
  101c26:	ff d0          	call   *%eax
  101c28:	e9 eb e4 ff ff 	jmp    100118 <all_ints>

00101c2d <isr179>:
  101c2d:	6a 00          	pushl  $0x0
  101c2f:	6a b3          	pushl  $0xffffffb3
  101c31:	0f a8          	pushl  %gs
  101c33:	0f a0          	pushl  %fs
  101c35:	06             	pushl  %es
  101c36:	1e             	pushl  %ds
  101c37:	60             	pusha  
  101c38:	66 b8 10 00    	movw   $0x10,%ax
  101c3c:	8e d8          	movw   %ax,%ds
  101c3e:	8e c0          	movw   %ax,%es
  101c40:	8e e0          	movw   %ax,%fs
  101c42:	8e e8          	movw   %ax,%gs
  101c44:	89 e0          	movl   %esp,%eax
  101c46:	50             	pushl  %eax

00101c47 <isr179.1>:
  101c47:	b8 48 2a 10 00 	movl   $0x102a48,%eax
  101c4c:	ff d0          	call   *%eax
  101c4e:	e9 c5 e4 ff ff 	jmp    100118 <all_ints>

00101c53 <isr180>:
  101c53:	6a 00          	pushl  $0x0
  101c55:	6a b4          	pushl  $0xffffffb4
  101c57:	0f a8          	pushl  %gs
  101c59:	0f a0          	pushl  %fs
  101c5b:	06             	pushl  %es
  101c5c:	1e             	pushl  %ds
  101c5d:	60             	pusha  
  101c5e:	66 b8 10 00    	movw   $0x10,%ax
  101c62:	8e d8          	movw   %ax,%ds
  101c64:	8e c0          	movw   %ax,%es
  101c66:	8e e0          	movw   %ax,%fs
  101c68:	8e e8          	movw   %ax,%gs
  101c6a:	89 e0          	movl   %esp,%eax
  101c6c:	50             	pushl  %eax

00101c6d <isr180.1>:
  101c6d:	b8 48 2a 10 00 	movl   $0x102a48,%eax
  101c72:	ff d0          	call   *%eax
  101c74:	e9 9f e4 ff ff 	jmp    100118 <all_ints>

00101c79 <isr181>:
  101c79:	6a 00          	pushl  $0x0
  101c7b:	6a b5          	pushl  $0xffffffb5
  101c7d:	0f a8          	pushl  %gs
  101c7f:	0f a0          	pushl  %fs
  101c81:	06             	pushl  %es
  101c82:	1e             	pushl  %ds
  101c83:	60             	pusha  
  101c84:	66 b8 10 00    	movw   $0x10,%ax
  101c88:	8e d8          	movw   %ax,%ds
  101c8a:	8e c0          	movw   %ax,%es
  101c8c:	8e e0          	movw   %ax,%fs
  101c8e:	8e e8          	movw   %ax,%gs
  101c90:	89 e0          	movl   %esp,%eax
  101c92:	50             	pushl  %eax

00101c93 <isr181.1>:
  101c93:	b8 48 2a 10 00 	movl   $0x102a48,%eax
  101c98:	ff d0          	call   *%eax
  101c9a:	e9 79 e4 ff ff 	jmp    100118 <all_ints>

00101c9f <isr182>:
  101c9f:	6a 00          	pushl  $0x0
  101ca1:	6a b6          	pushl  $0xffffffb6
  101ca3:	0f a8          	pushl  %gs
  101ca5:	0f a0          	pushl  %fs
  101ca7:	06             	pushl  %es
  101ca8:	1e             	pushl  %ds
  101ca9:	60             	pusha  
  101caa:	66 b8 10 00    	movw   $0x10,%ax
  101cae:	8e d8          	movw   %ax,%ds
  101cb0:	8e c0          	movw   %ax,%es
  101cb2:	8e e0          	movw   %ax,%fs
  101cb4:	8e e8          	movw   %ax,%gs
  101cb6:	89 e0          	movl   %esp,%eax
  101cb8:	50             	pushl  %eax

00101cb9 <isr182.1>:
  101cb9:	b8 48 2a 10 00 	movl   $0x102a48,%eax
  101cbe:	ff d0          	call   *%eax
  101cc0:	e9 53 e4 ff ff 	jmp    100118 <all_ints>

00101cc5 <isr183>:
  101cc5:	6a 00          	pushl  $0x0
  101cc7:	6a b7          	pushl  $0xffffffb7
  101cc9:	0f a8          	pushl  %gs
  101ccb:	0f a0          	pushl  %fs
  101ccd:	06             	pushl  %es
  101cce:	1e             	pushl  %ds
  101ccf:	60             	pusha  
  101cd0:	66 b8 10 00    	movw   $0x10,%ax
  101cd4:	8e d8          	movw   %ax,%ds
  101cd6:	8e c0          	movw   %ax,%es
  101cd8:	8e e0          	movw   %ax,%fs
  101cda:	8e e8          	movw   %ax,%gs
  101cdc:	89 e0          	movl   %esp,%eax
  101cde:	50             	pushl  %eax

00101cdf <isr183.1>:
  101cdf:	b8 48 2a 10 00 	movl   $0x102a48,%eax
  101ce4:	ff d0          	call   *%eax
  101ce6:	e9 2d e4 ff ff 	jmp    100118 <all_ints>

00101ceb <isr184>:
  101ceb:	6a 00          	pushl  $0x0
  101ced:	6a b8          	pushl  $0xffffffb8
  101cef:	0f a8          	pushl  %gs
  101cf1:	0f a0          	pushl  %fs
  101cf3:	06             	pushl  %es
  101cf4:	1e             	pushl  %ds
  101cf5:	60             	pusha  
  101cf6:	66 b8 10 00    	movw   $0x10,%ax
  101cfa:	8e d8          	movw   %ax,%ds
  101cfc:	8e c0          	movw   %ax,%es
  101cfe:	8e e0          	movw   %ax,%fs
  101d00:	8e e8          	movw   %ax,%gs
  101d02:	89 e0          	movl   %esp,%eax
  101d04:	50             	pushl  %eax

00101d05 <isr184.1>:
  101d05:	b8 48 2a 10 00 	movl   $0x102a48,%eax
  101d0a:	ff d0          	call   *%eax
  101d0c:	e9 07 e4 ff ff 	jmp    100118 <all_ints>

00101d11 <isr185>:
  101d11:	6a 00          	pushl  $0x0
  101d13:	6a b9          	pushl  $0xffffffb9
  101d15:	0f a8          	pushl  %gs
  101d17:	0f a0          	pushl  %fs
  101d19:	06             	pushl  %es
  101d1a:	1e             	pushl  %ds
  101d1b:	60             	pusha  
  101d1c:	66 b8 10 00    	movw   $0x10,%ax
  101d20:	8e d8          	movw   %ax,%ds
  101d22:	8e c0          	movw   %ax,%es
  101d24:	8e e0          	movw   %ax,%fs
  101d26:	8e e8          	movw   %ax,%gs
  101d28:	89 e0          	movl   %esp,%eax
  101d2a:	50             	pushl  %eax

00101d2b <isr185.1>:
  101d2b:	b8 48 2a 10 00 	movl   $0x102a48,%eax
  101d30:	ff d0          	call   *%eax
  101d32:	e9 e1 e3 ff ff 	jmp    100118 <all_ints>

00101d37 <isr186>:
  101d37:	6a 00          	pushl  $0x0
  101d39:	6a ba          	pushl  $0xffffffba
  101d3b:	0f a8          	pushl  %gs
  101d3d:	0f a0          	pushl  %fs
  101d3f:	06             	pushl  %es
  101d40:	1e             	pushl  %ds
  101d41:	60             	pusha  
  101d42:	66 b8 10 00    	movw   $0x10,%ax
  101d46:	8e d8          	movw   %ax,%ds
  101d48:	8e c0          	movw   %ax,%es
  101d4a:	8e e0          	movw   %ax,%fs
  101d4c:	8e e8          	movw   %ax,%gs
  101d4e:	89 e0          	movl   %esp,%eax
  101d50:	50             	pushl  %eax

00101d51 <isr186.1>:
  101d51:	b8 48 2a 10 00 	movl   $0x102a48,%eax
  101d56:	ff d0          	call   *%eax
  101d58:	e9 bb e3 ff ff 	jmp    100118 <all_ints>

00101d5d <isr187>:
  101d5d:	6a 00          	pushl  $0x0
  101d5f:	6a bb          	pushl  $0xffffffbb
  101d61:	0f a8          	pushl  %gs
  101d63:	0f a0          	pushl  %fs
  101d65:	06             	pushl  %es
  101d66:	1e             	pushl  %ds
  101d67:	60             	pusha  
  101d68:	66 b8 10 00    	movw   $0x10,%ax
  101d6c:	8e d8          	movw   %ax,%ds
  101d6e:	8e c0          	movw   %ax,%es
  101d70:	8e e0          	movw   %ax,%fs
  101d72:	8e e8          	movw   %ax,%gs
  101d74:	89 e0          	movl   %esp,%eax
  101d76:	50             	pushl  %eax

00101d77 <isr187.1>:
  101d77:	b8 48 2a 10 00 	movl   $0x102a48,%eax
  101d7c:	ff d0          	call   *%eax
  101d7e:	e9 95 e3 ff ff 	jmp    100118 <all_ints>

00101d83 <isr188>:
  101d83:	6a 00          	pushl  $0x0
  101d85:	6a bc          	pushl  $0xffffffbc
  101d87:	0f a8          	pushl  %gs
  101d89:	0f a0          	pushl  %fs
  101d8b:	06             	pushl  %es
  101d8c:	1e             	pushl  %ds
  101d8d:	60             	pusha  
  101d8e:	66 b8 10 00    	movw   $0x10,%ax
  101d92:	8e d8          	movw   %ax,%ds
  101d94:	8e c0          	movw   %ax,%es
  101d96:	8e e0          	movw   %ax,%fs
  101d98:	8e e8          	movw   %ax,%gs
  101d9a:	89 e0          	movl   %esp,%eax
  101d9c:	50             	pushl  %eax

00101d9d <isr188.1>:
  101d9d:	b8 48 2a 10 00 	movl   $0x102a48,%eax
  101da2:	ff d0          	call   *%eax
  101da4:	e9 6f e3 ff ff 	jmp    100118 <all_ints>

00101da9 <isr189>:
  101da9:	6a 00          	pushl  $0x0
  101dab:	6a bd          	pushl  $0xffffffbd
  101dad:	0f a8          	pushl  %gs
  101daf:	0f a0          	pushl  %fs
  101db1:	06             	pushl  %es
  101db2:	1e             	pushl  %ds
  101db3:	60             	pusha  
  101db4:	66 b8 10 00    	movw   $0x10,%ax
  101db8:	8e d8          	movw   %ax,%ds
  101dba:	8e c0          	movw   %ax,%es
  101dbc:	8e e0          	movw   %ax,%fs
  101dbe:	8e e8          	movw   %ax,%gs
  101dc0:	89 e0          	movl   %esp,%eax
  101dc2:	50             	pushl  %eax

00101dc3 <isr189.1>:
  101dc3:	b8 48 2a 10 00 	movl   $0x102a48,%eax
  101dc8:	ff d0          	call   *%eax
  101dca:	e9 49 e3 ff ff 	jmp    100118 <all_ints>

00101dcf <isr190>:
  101dcf:	6a 00          	pushl  $0x0
  101dd1:	6a be          	pushl  $0xffffffbe
  101dd3:	0f a8          	pushl  %gs
  101dd5:	0f a0          	pushl  %fs
  101dd7:	06             	pushl  %es
  101dd8:	1e             	pushl  %ds
  101dd9:	60             	pusha  
  101dda:	66 b8 10 00    	movw   $0x10,%ax
  101dde:	8e d8          	movw   %ax,%ds
  101de0:	8e c0          	movw   %ax,%es
  101de2:	8e e0          	movw   %ax,%fs
  101de4:	8e e8          	movw   %ax,%gs
  101de6:	89 e0          	movl   %esp,%eax
  101de8:	50             	pushl  %eax

00101de9 <isr190.1>:
  101de9:	b8 48 2a 10 00 	movl   $0x102a48,%eax
  101dee:	ff d0          	call   *%eax
  101df0:	e9 23 e3 ff ff 	jmp    100118 <all_ints>

00101df5 <isr191>:
  101df5:	6a 00          	pushl  $0x0
  101df7:	6a bf          	pushl  $0xffffffbf
  101df9:	0f a8          	pushl  %gs
  101dfb:	0f a0          	pushl  %fs
  101dfd:	06             	pushl  %es
  101dfe:	1e             	pushl  %ds
  101dff:	60             	pusha  
  101e00:	66 b8 10 00    	movw   $0x10,%ax
  101e04:	8e d8          	movw   %ax,%ds
  101e06:	8e c0          	movw   %ax,%es
  101e08:	8e e0          	movw   %ax,%fs
  101e0a:	8e e8          	movw   %ax,%gs
  101e0c:	89 e0          	movl   %esp,%eax
  101e0e:	50             	pushl  %eax

00101e0f <isr191.1>:
  101e0f:	b8 48 2a 10 00 	movl   $0x102a48,%eax
  101e14:	ff d0          	call   *%eax
  101e16:	e9 fd e2 ff ff 	jmp    100118 <all_ints>

00101e1b <isr192>:
  101e1b:	6a 00          	pushl  $0x0
  101e1d:	6a c0          	pushl  $0xffffffc0
  101e1f:	0f a8          	pushl  %gs
  101e21:	0f a0          	pushl  %fs
  101e23:	06             	pushl  %es
  101e24:	1e             	pushl  %ds
  101e25:	60             	pusha  
  101e26:	66 b8 10 00    	movw   $0x10,%ax
  101e2a:	8e d8          	movw   %ax,%ds
  101e2c:	8e c0          	movw   %ax,%es
  101e2e:	8e e0          	movw   %ax,%fs
  101e30:	8e e8          	movw   %ax,%gs
  101e32:	89 e0          	movl   %esp,%eax
  101e34:	50             	pushl  %eax

00101e35 <isr192.1>:
  101e35:	b8 48 2a 10 00 	movl   $0x102a48,%eax
  101e3a:	ff d0          	call   *%eax
  101e3c:	e9 d7 e2 ff ff 	jmp    100118 <all_ints>

00101e41 <isr193>:
  101e41:	6a 00          	pushl  $0x0
  101e43:	6a c1          	pushl  $0xffffffc1
  101e45:	0f a8          	pushl  %gs
  101e47:	0f a0          	pushl  %fs
  101e49:	06             	pushl  %es
  101e4a:	1e             	pushl  %ds
  101e4b:	60             	pusha  
  101e4c:	66 b8 10 00    	movw   $0x10,%ax
  101e50:	8e d8          	movw   %ax,%ds
  101e52:	8e c0          	movw   %ax,%es
  101e54:	8e e0          	movw   %ax,%fs
  101e56:	8e e8          	movw   %ax,%gs
  101e58:	89 e0          	movl   %esp,%eax
  101e5a:	50             	pushl  %eax

00101e5b <isr193.1>:
  101e5b:	b8 48 2a 10 00 	movl   $0x102a48,%eax
  101e60:	ff d0          	call   *%eax
  101e62:	e9 b1 e2 ff ff 	jmp    100118 <all_ints>

00101e67 <isr194>:
  101e67:	6a 00          	pushl  $0x0
  101e69:	6a c2          	pushl  $0xffffffc2
  101e6b:	0f a8          	pushl  %gs
  101e6d:	0f a0          	pushl  %fs
  101e6f:	06             	pushl  %es
  101e70:	1e             	pushl  %ds
  101e71:	60             	pusha  
  101e72:	66 b8 10 00    	movw   $0x10,%ax
  101e76:	8e d8          	movw   %ax,%ds
  101e78:	8e c0          	movw   %ax,%es
  101e7a:	8e e0          	movw   %ax,%fs
  101e7c:	8e e8          	movw   %ax,%gs
  101e7e:	89 e0          	movl   %esp,%eax
  101e80:	50             	pushl  %eax

00101e81 <isr194.1>:
  101e81:	b8 48 2a 10 00 	movl   $0x102a48,%eax
  101e86:	ff d0          	call   *%eax
  101e88:	e9 8b e2 ff ff 	jmp    100118 <all_ints>

00101e8d <isr195>:
  101e8d:	6a 00          	pushl  $0x0
  101e8f:	6a c3          	pushl  $0xffffffc3
  101e91:	0f a8          	pushl  %gs
  101e93:	0f a0          	pushl  %fs
  101e95:	06             	pushl  %es
  101e96:	1e             	pushl  %ds
  101e97:	60             	pusha  
  101e98:	66 b8 10 00    	movw   $0x10,%ax
  101e9c:	8e d8          	movw   %ax,%ds
  101e9e:	8e c0          	movw   %ax,%es
  101ea0:	8e e0          	movw   %ax,%fs
  101ea2:	8e e8          	movw   %ax,%gs
  101ea4:	89 e0          	movl   %esp,%eax
  101ea6:	50             	pushl  %eax

00101ea7 <isr195.1>:
  101ea7:	b8 48 2a 10 00 	movl   $0x102a48,%eax
  101eac:	ff d0          	call   *%eax
  101eae:	e9 65 e2 ff ff 	jmp    100118 <all_ints>

00101eb3 <isr196>:
  101eb3:	6a 00          	pushl  $0x0
  101eb5:	6a c4          	pushl  $0xffffffc4
  101eb7:	0f a8          	pushl  %gs
  101eb9:	0f a0          	pushl  %fs
  101ebb:	06             	pushl  %es
  101ebc:	1e             	pushl  %ds
  101ebd:	60             	pusha  
  101ebe:	66 b8 10 00    	movw   $0x10,%ax
  101ec2:	8e d8          	movw   %ax,%ds
  101ec4:	8e c0          	movw   %ax,%es
  101ec6:	8e e0          	movw   %ax,%fs
  101ec8:	8e e8          	movw   %ax,%gs
  101eca:	89 e0          	movl   %esp,%eax
  101ecc:	50             	pushl  %eax

00101ecd <isr196.1>:
  101ecd:	b8 48 2a 10 00 	movl   $0x102a48,%eax
  101ed2:	ff d0          	call   *%eax
  101ed4:	e9 3f e2 ff ff 	jmp    100118 <all_ints>

00101ed9 <isr197>:
  101ed9:	6a 00          	pushl  $0x0
  101edb:	6a c5          	pushl  $0xffffffc5
  101edd:	0f a8          	pushl  %gs
  101edf:	0f a0          	pushl  %fs
  101ee1:	06             	pushl  %es
  101ee2:	1e             	pushl  %ds
  101ee3:	60             	pusha  
  101ee4:	66 b8 10 00    	movw   $0x10,%ax
  101ee8:	8e d8          	movw   %ax,%ds
  101eea:	8e c0          	movw   %ax,%es
  101eec:	8e e0          	movw   %ax,%fs
  101eee:	8e e8          	movw   %ax,%gs
  101ef0:	89 e0          	movl   %esp,%eax
  101ef2:	50             	pushl  %eax

00101ef3 <isr197.1>:
  101ef3:	b8 48 2a 10 00 	movl   $0x102a48,%eax
  101ef8:	ff d0          	call   *%eax
  101efa:	e9 19 e2 ff ff 	jmp    100118 <all_ints>

00101eff <isr198>:
  101eff:	6a 00          	pushl  $0x0
  101f01:	6a c6          	pushl  $0xffffffc6
  101f03:	0f a8          	pushl  %gs
  101f05:	0f a0          	pushl  %fs
  101f07:	06             	pushl  %es
  101f08:	1e             	pushl  %ds
  101f09:	60             	pusha  
  101f0a:	66 b8 10 00    	movw   $0x10,%ax
  101f0e:	8e d8          	movw   %ax,%ds
  101f10:	8e c0          	movw   %ax,%es
  101f12:	8e e0          	movw   %ax,%fs
  101f14:	8e e8          	movw   %ax,%gs
  101f16:	89 e0          	movl   %esp,%eax
  101f18:	50             	pushl  %eax

00101f19 <isr198.1>:
  101f19:	b8 48 2a 10 00 	movl   $0x102a48,%eax
  101f1e:	ff d0          	call   *%eax
  101f20:	e9 f3 e1 ff ff 	jmp    100118 <all_ints>

00101f25 <isr199>:
  101f25:	6a 00          	pushl  $0x0
  101f27:	6a c7          	pushl  $0xffffffc7
  101f29:	0f a8          	pushl  %gs
  101f2b:	0f a0          	pushl  %fs
  101f2d:	06             	pushl  %es
  101f2e:	1e             	pushl  %ds
  101f2f:	60             	pusha  
  101f30:	66 b8 10 00    	movw   $0x10,%ax
  101f34:	8e d8          	movw   %ax,%ds
  101f36:	8e c0          	movw   %ax,%es
  101f38:	8e e0          	movw   %ax,%fs
  101f3a:	8e e8          	movw   %ax,%gs
  101f3c:	89 e0          	movl   %esp,%eax
  101f3e:	50             	pushl  %eax

00101f3f <isr199.1>:
  101f3f:	b8 48 2a 10 00 	movl   $0x102a48,%eax
  101f44:	ff d0          	call   *%eax
  101f46:	e9 cd e1 ff ff 	jmp    100118 <all_ints>

00101f4b <isr200>:
  101f4b:	6a 00          	pushl  $0x0
  101f4d:	6a c8          	pushl  $0xffffffc8
  101f4f:	0f a8          	pushl  %gs
  101f51:	0f a0          	pushl  %fs
  101f53:	06             	pushl  %es
  101f54:	1e             	pushl  %ds
  101f55:	60             	pusha  
  101f56:	66 b8 10 00    	movw   $0x10,%ax
  101f5a:	8e d8          	movw   %ax,%ds
  101f5c:	8e c0          	movw   %ax,%es
  101f5e:	8e e0          	movw   %ax,%fs
  101f60:	8e e8          	movw   %ax,%gs
  101f62:	89 e0          	movl   %esp,%eax
  101f64:	50             	pushl  %eax

00101f65 <isr200.1>:
  101f65:	b8 48 2a 10 00 	movl   $0x102a48,%eax
  101f6a:	ff d0          	call   *%eax
  101f6c:	e9 a7 e1 ff ff 	jmp    100118 <all_ints>

00101f71 <isr201>:
  101f71:	6a 00          	pushl  $0x0
  101f73:	6a c9          	pushl  $0xffffffc9
  101f75:	0f a8          	pushl  %gs
  101f77:	0f a0          	pushl  %fs
  101f79:	06             	pushl  %es
  101f7a:	1e             	pushl  %ds
  101f7b:	60             	pusha  
  101f7c:	66 b8 10 00    	movw   $0x10,%ax
  101f80:	8e d8          	movw   %ax,%ds
  101f82:	8e c0          	movw   %ax,%es
  101f84:	8e e0          	movw   %ax,%fs
  101f86:	8e e8          	movw   %ax,%gs
  101f88:	89 e0          	movl   %esp,%eax
  101f8a:	50             	pushl  %eax

00101f8b <isr201.1>:
  101f8b:	b8 48 2a 10 00 	movl   $0x102a48,%eax
  101f90:	ff d0          	call   *%eax
  101f92:	e9 81 e1 ff ff 	jmp    100118 <all_ints>

00101f97 <isr202>:
  101f97:	6a 00          	pushl  $0x0
  101f99:	6a ca          	pushl  $0xffffffca
  101f9b:	0f a8          	pushl  %gs
  101f9d:	0f a0          	pushl  %fs
  101f9f:	06             	pushl  %es
  101fa0:	1e             	pushl  %ds
  101fa1:	60             	pusha  
  101fa2:	66 b8 10 00    	movw   $0x10,%ax
  101fa6:	8e d8          	movw   %ax,%ds
  101fa8:	8e c0          	movw   %ax,%es
  101faa:	8e e0          	movw   %ax,%fs
  101fac:	8e e8          	movw   %ax,%gs
  101fae:	89 e0          	movl   %esp,%eax
  101fb0:	50             	pushl  %eax

00101fb1 <isr202.1>:
  101fb1:	b8 48 2a 10 00 	movl   $0x102a48,%eax
  101fb6:	ff d0          	call   *%eax
  101fb8:	e9 5b e1 ff ff 	jmp    100118 <all_ints>

00101fbd <isr203>:
  101fbd:	6a 00          	pushl  $0x0
  101fbf:	6a cb          	pushl  $0xffffffcb
  101fc1:	0f a8          	pushl  %gs
  101fc3:	0f a0          	pushl  %fs
  101fc5:	06             	pushl  %es
  101fc6:	1e             	pushl  %ds
  101fc7:	60             	pusha  
  101fc8:	66 b8 10 00    	movw   $0x10,%ax
  101fcc:	8e d8          	movw   %ax,%ds
  101fce:	8e c0          	movw   %ax,%es
  101fd0:	8e e0          	movw   %ax,%fs
  101fd2:	8e e8          	movw   %ax,%gs
  101fd4:	89 e0          	movl   %esp,%eax
  101fd6:	50             	pushl  %eax

00101fd7 <isr203.1>:
  101fd7:	b8 48 2a 10 00 	movl   $0x102a48,%eax
  101fdc:	ff d0          	call   *%eax
  101fde:	e9 35 e1 ff ff 	jmp    100118 <all_ints>

00101fe3 <isr204>:
  101fe3:	6a 00          	pushl  $0x0
  101fe5:	6a cc          	pushl  $0xffffffcc
  101fe7:	0f a8          	pushl  %gs
  101fe9:	0f a0          	pushl  %fs
  101feb:	06             	pushl  %es
  101fec:	1e             	pushl  %ds
  101fed:	60             	pusha  
  101fee:	66 b8 10 00    	movw   $0x10,%ax
  101ff2:	8e d8          	movw   %ax,%ds
  101ff4:	8e c0          	movw   %ax,%es
  101ff6:	8e e0          	movw   %ax,%fs
  101ff8:	8e e8          	movw   %ax,%gs
  101ffa:	89 e0          	movl   %esp,%eax
  101ffc:	50             	pushl  %eax

00101ffd <isr204.1>:
  101ffd:	b8 48 2a 10 00 	movl   $0x102a48,%eax
  102002:	ff d0          	call   *%eax
  102004:	e9 0f e1 ff ff 	jmp    100118 <all_ints>

00102009 <isr205>:
  102009:	6a 00          	pushl  $0x0
  10200b:	6a cd          	pushl  $0xffffffcd
  10200d:	0f a8          	pushl  %gs
  10200f:	0f a0          	pushl  %fs
  102011:	06             	pushl  %es
  102012:	1e             	pushl  %ds
  102013:	60             	pusha  
  102014:	66 b8 10 00    	movw   $0x10,%ax
  102018:	8e d8          	movw   %ax,%ds
  10201a:	8e c0          	movw   %ax,%es
  10201c:	8e e0          	movw   %ax,%fs
  10201e:	8e e8          	movw   %ax,%gs
  102020:	89 e0          	movl   %esp,%eax
  102022:	50             	pushl  %eax

00102023 <isr205.1>:
  102023:	b8 48 2a 10 00 	movl   $0x102a48,%eax
  102028:	ff d0          	call   *%eax
  10202a:	e9 e9 e0 ff ff 	jmp    100118 <all_ints>

0010202f <isr206>:
  10202f:	6a 00          	pushl  $0x0
  102031:	6a ce          	pushl  $0xffffffce
  102033:	0f a8          	pushl  %gs
  102035:	0f a0          	pushl  %fs
  102037:	06             	pushl  %es
  102038:	1e             	pushl  %ds
  102039:	60             	pusha  
  10203a:	66 b8 10 00    	movw   $0x10,%ax
  10203e:	8e d8          	movw   %ax,%ds
  102040:	8e c0          	movw   %ax,%es
  102042:	8e e0          	movw   %ax,%fs
  102044:	8e e8          	movw   %ax,%gs
  102046:	89 e0          	movl   %esp,%eax
  102048:	50             	pushl  %eax

00102049 <isr206.1>:
  102049:	b8 48 2a 10 00 	movl   $0x102a48,%eax
  10204e:	ff d0          	call   *%eax
  102050:	e9 c3 e0 ff ff 	jmp    100118 <all_ints>

00102055 <isr207>:
  102055:	6a 00          	pushl  $0x0
  102057:	6a cf          	pushl  $0xffffffcf
  102059:	0f a8          	pushl  %gs
  10205b:	0f a0          	pushl  %fs
  10205d:	06             	pushl  %es
  10205e:	1e             	pushl  %ds
  10205f:	60             	pusha  
  102060:	66 b8 10 00    	movw   $0x10,%ax
  102064:	8e d8          	movw   %ax,%ds
  102066:	8e c0          	movw   %ax,%es
  102068:	8e e0          	movw   %ax,%fs
  10206a:	8e e8          	movw   %ax,%gs
  10206c:	89 e0          	movl   %esp,%eax
  10206e:	50             	pushl  %eax

0010206f <isr207.1>:
  10206f:	b8 48 2a 10 00 	movl   $0x102a48,%eax
  102074:	ff d0          	call   *%eax
  102076:	e9 9d e0 ff ff 	jmp    100118 <all_ints>

0010207b <isr208>:
  10207b:	6a 00          	pushl  $0x0
  10207d:	6a d0          	pushl  $0xffffffd0
  10207f:	0f a8          	pushl  %gs
  102081:	0f a0          	pushl  %fs
  102083:	06             	pushl  %es
  102084:	1e             	pushl  %ds
  102085:	60             	pusha  
  102086:	66 b8 10 00    	movw   $0x10,%ax
  10208a:	8e d8          	movw   %ax,%ds
  10208c:	8e c0          	movw   %ax,%es
  10208e:	8e e0          	movw   %ax,%fs
  102090:	8e e8          	movw   %ax,%gs
  102092:	89 e0          	movl   %esp,%eax
  102094:	50             	pushl  %eax

00102095 <isr208.1>:
  102095:	b8 48 2a 10 00 	movl   $0x102a48,%eax
  10209a:	ff d0          	call   *%eax
  10209c:	e9 77 e0 ff ff 	jmp    100118 <all_ints>

001020a1 <isr209>:
  1020a1:	6a 00          	pushl  $0x0
  1020a3:	6a d1          	pushl  $0xffffffd1
  1020a5:	0f a8          	pushl  %gs
  1020a7:	0f a0          	pushl  %fs
  1020a9:	06             	pushl  %es
  1020aa:	1e             	pushl  %ds
  1020ab:	60             	pusha  
  1020ac:	66 b8 10 00    	movw   $0x10,%ax
  1020b0:	8e d8          	movw   %ax,%ds
  1020b2:	8e c0          	movw   %ax,%es
  1020b4:	8e e0          	movw   %ax,%fs
  1020b6:	8e e8          	movw   %ax,%gs
  1020b8:	89 e0          	movl   %esp,%eax
  1020ba:	50             	pushl  %eax

001020bb <isr209.1>:
  1020bb:	b8 48 2a 10 00 	movl   $0x102a48,%eax
  1020c0:	ff d0          	call   *%eax
  1020c2:	e9 51 e0 ff ff 	jmp    100118 <all_ints>

001020c7 <isr210>:
  1020c7:	6a 00          	pushl  $0x0
  1020c9:	6a d2          	pushl  $0xffffffd2
  1020cb:	0f a8          	pushl  %gs
  1020cd:	0f a0          	pushl  %fs
  1020cf:	06             	pushl  %es
  1020d0:	1e             	pushl  %ds
  1020d1:	60             	pusha  
  1020d2:	66 b8 10 00    	movw   $0x10,%ax
  1020d6:	8e d8          	movw   %ax,%ds
  1020d8:	8e c0          	movw   %ax,%es
  1020da:	8e e0          	movw   %ax,%fs
  1020dc:	8e e8          	movw   %ax,%gs
  1020de:	89 e0          	movl   %esp,%eax
  1020e0:	50             	pushl  %eax

001020e1 <isr210.1>:
  1020e1:	b8 48 2a 10 00 	movl   $0x102a48,%eax
  1020e6:	ff d0          	call   *%eax
  1020e8:	e9 2b e0 ff ff 	jmp    100118 <all_ints>

001020ed <isr211>:
  1020ed:	6a 00          	pushl  $0x0
  1020ef:	6a d3          	pushl  $0xffffffd3
  1020f1:	0f a8          	pushl  %gs
  1020f3:	0f a0          	pushl  %fs
  1020f5:	06             	pushl  %es
  1020f6:	1e             	pushl  %ds
  1020f7:	60             	pusha  
  1020f8:	66 b8 10 00    	movw   $0x10,%ax
  1020fc:	8e d8          	movw   %ax,%ds
  1020fe:	8e c0          	movw   %ax,%es
  102100:	8e e0          	movw   %ax,%fs
  102102:	8e e8          	movw   %ax,%gs
  102104:	89 e0          	movl   %esp,%eax
  102106:	50             	pushl  %eax

00102107 <isr211.1>:
  102107:	b8 48 2a 10 00 	movl   $0x102a48,%eax
  10210c:	ff d0          	call   *%eax
  10210e:	e9 05 e0 ff ff 	jmp    100118 <all_ints>

00102113 <isr212>:
  102113:	6a 00          	pushl  $0x0
  102115:	6a d4          	pushl  $0xffffffd4
  102117:	0f a8          	pushl  %gs
  102119:	0f a0          	pushl  %fs
  10211b:	06             	pushl  %es
  10211c:	1e             	pushl  %ds
  10211d:	60             	pusha  
  10211e:	66 b8 10 00    	movw   $0x10,%ax
  102122:	8e d8          	movw   %ax,%ds
  102124:	8e c0          	movw   %ax,%es
  102126:	8e e0          	movw   %ax,%fs
  102128:	8e e8          	movw   %ax,%gs
  10212a:	89 e0          	movl   %esp,%eax
  10212c:	50             	pushl  %eax

0010212d <isr212.1>:
  10212d:	b8 48 2a 10 00 	movl   $0x102a48,%eax
  102132:	ff d0          	call   *%eax
  102134:	e9 df df ff ff 	jmp    100118 <all_ints>

00102139 <isr213>:
  102139:	6a 00          	pushl  $0x0
  10213b:	6a d5          	pushl  $0xffffffd5
  10213d:	0f a8          	pushl  %gs
  10213f:	0f a0          	pushl  %fs
  102141:	06             	pushl  %es
  102142:	1e             	pushl  %ds
  102143:	60             	pusha  
  102144:	66 b8 10 00    	movw   $0x10,%ax
  102148:	8e d8          	movw   %ax,%ds
  10214a:	8e c0          	movw   %ax,%es
  10214c:	8e e0          	movw   %ax,%fs
  10214e:	8e e8          	movw   %ax,%gs
  102150:	89 e0          	movl   %esp,%eax
  102152:	50             	pushl  %eax

00102153 <isr213.1>:
  102153:	b8 48 2a 10 00 	movl   $0x102a48,%eax
  102158:	ff d0          	call   *%eax
  10215a:	e9 b9 df ff ff 	jmp    100118 <all_ints>

0010215f <isr214>:
  10215f:	6a 00          	pushl  $0x0
  102161:	6a d6          	pushl  $0xffffffd6
  102163:	0f a8          	pushl  %gs
  102165:	0f a0          	pushl  %fs
  102167:	06             	pushl  %es
  102168:	1e             	pushl  %ds
  102169:	60             	pusha  
  10216a:	66 b8 10 00    	movw   $0x10,%ax
  10216e:	8e d8          	movw   %ax,%ds
  102170:	8e c0          	movw   %ax,%es
  102172:	8e e0          	movw   %ax,%fs
  102174:	8e e8          	movw   %ax,%gs
  102176:	89 e0          	movl   %esp,%eax
  102178:	50             	pushl  %eax

00102179 <isr214.1>:
  102179:	b8 48 2a 10 00 	movl   $0x102a48,%eax
  10217e:	ff d0          	call   *%eax
  102180:	e9 93 df ff ff 	jmp    100118 <all_ints>

00102185 <isr215>:
  102185:	6a 00          	pushl  $0x0
  102187:	6a d7          	pushl  $0xffffffd7
  102189:	0f a8          	pushl  %gs
  10218b:	0f a0          	pushl  %fs
  10218d:	06             	pushl  %es
  10218e:	1e             	pushl  %ds
  10218f:	60             	pusha  
  102190:	66 b8 10 00    	movw   $0x10,%ax
  102194:	8e d8          	movw   %ax,%ds
  102196:	8e c0          	movw   %ax,%es
  102198:	8e e0          	movw   %ax,%fs
  10219a:	8e e8          	movw   %ax,%gs
  10219c:	89 e0          	movl   %esp,%eax
  10219e:	50             	pushl  %eax

0010219f <isr215.1>:
  10219f:	b8 48 2a 10 00 	movl   $0x102a48,%eax
  1021a4:	ff d0          	call   *%eax
  1021a6:	e9 6d df ff ff 	jmp    100118 <all_ints>

001021ab <isr216>:
  1021ab:	6a 00          	pushl  $0x0
  1021ad:	6a d8          	pushl  $0xffffffd8
  1021af:	0f a8          	pushl  %gs
  1021b1:	0f a0          	pushl  %fs
  1021b3:	06             	pushl  %es
  1021b4:	1e             	pushl  %ds
  1021b5:	60             	pusha  
  1021b6:	66 b8 10 00    	movw   $0x10,%ax
  1021ba:	8e d8          	movw   %ax,%ds
  1021bc:	8e c0          	movw   %ax,%es
  1021be:	8e e0          	movw   %ax,%fs
  1021c0:	8e e8          	movw   %ax,%gs
  1021c2:	89 e0          	movl   %esp,%eax
  1021c4:	50             	pushl  %eax

001021c5 <isr216.1>:
  1021c5:	b8 48 2a 10 00 	movl   $0x102a48,%eax
  1021ca:	ff d0          	call   *%eax
  1021cc:	e9 47 df ff ff 	jmp    100118 <all_ints>

001021d1 <isr217>:
  1021d1:	6a 00          	pushl  $0x0
  1021d3:	6a d9          	pushl  $0xffffffd9
  1021d5:	0f a8          	pushl  %gs
  1021d7:	0f a0          	pushl  %fs
  1021d9:	06             	pushl  %es
  1021da:	1e             	pushl  %ds
  1021db:	60             	pusha  
  1021dc:	66 b8 10 00    	movw   $0x10,%ax
  1021e0:	8e d8          	movw   %ax,%ds
  1021e2:	8e c0          	movw   %ax,%es
  1021e4:	8e e0          	movw   %ax,%fs
  1021e6:	8e e8          	movw   %ax,%gs
  1021e8:	89 e0          	movl   %esp,%eax
  1021ea:	50             	pushl  %eax

001021eb <isr217.1>:
  1021eb:	b8 48 2a 10 00 	movl   $0x102a48,%eax
  1021f0:	ff d0          	call   *%eax
  1021f2:	e9 21 df ff ff 	jmp    100118 <all_ints>

001021f7 <isr218>:
  1021f7:	6a 00          	pushl  $0x0
  1021f9:	6a da          	pushl  $0xffffffda
  1021fb:	0f a8          	pushl  %gs
  1021fd:	0f a0          	pushl  %fs
  1021ff:	06             	pushl  %es
  102200:	1e             	pushl  %ds
  102201:	60             	pusha  
  102202:	66 b8 10 00    	movw   $0x10,%ax
  102206:	8e d8          	movw   %ax,%ds
  102208:	8e c0          	movw   %ax,%es
  10220a:	8e e0          	movw   %ax,%fs
  10220c:	8e e8          	movw   %ax,%gs
  10220e:	89 e0          	movl   %esp,%eax
  102210:	50             	pushl  %eax

00102211 <isr218.1>:
  102211:	b8 48 2a 10 00 	movl   $0x102a48,%eax
  102216:	ff d0          	call   *%eax
  102218:	e9 fb de ff ff 	jmp    100118 <all_ints>

0010221d <isr219>:
  10221d:	6a 00          	pushl  $0x0
  10221f:	6a db          	pushl  $0xffffffdb
  102221:	0f a8          	pushl  %gs
  102223:	0f a0          	pushl  %fs
  102225:	06             	pushl  %es
  102226:	1e             	pushl  %ds
  102227:	60             	pusha  
  102228:	66 b8 10 00    	movw   $0x10,%ax
  10222c:	8e d8          	movw   %ax,%ds
  10222e:	8e c0          	movw   %ax,%es
  102230:	8e e0          	movw   %ax,%fs
  102232:	8e e8          	movw   %ax,%gs
  102234:	89 e0          	movl   %esp,%eax
  102236:	50             	pushl  %eax

00102237 <isr219.1>:
  102237:	b8 48 2a 10 00 	movl   $0x102a48,%eax
  10223c:	ff d0          	call   *%eax
  10223e:	e9 d5 de ff ff 	jmp    100118 <all_ints>

00102243 <isr220>:
  102243:	6a 00          	pushl  $0x0
  102245:	6a dc          	pushl  $0xffffffdc
  102247:	0f a8          	pushl  %gs
  102249:	0f a0          	pushl  %fs
  10224b:	06             	pushl  %es
  10224c:	1e             	pushl  %ds
  10224d:	60             	pusha  
  10224e:	66 b8 10 00    	movw   $0x10,%ax
  102252:	8e d8          	movw   %ax,%ds
  102254:	8e c0          	movw   %ax,%es
  102256:	8e e0          	movw   %ax,%fs
  102258:	8e e8          	movw   %ax,%gs
  10225a:	89 e0          	movl   %esp,%eax
  10225c:	50             	pushl  %eax

0010225d <isr220.1>:
  10225d:	b8 48 2a 10 00 	movl   $0x102a48,%eax
  102262:	ff d0          	call   *%eax
  102264:	e9 af de ff ff 	jmp    100118 <all_ints>

00102269 <isr221>:
  102269:	6a 00          	pushl  $0x0
  10226b:	6a dd          	pushl  $0xffffffdd
  10226d:	0f a8          	pushl  %gs
  10226f:	0f a0          	pushl  %fs
  102271:	06             	pushl  %es
  102272:	1e             	pushl  %ds
  102273:	60             	pusha  
  102274:	66 b8 10 00    	movw   $0x10,%ax
  102278:	8e d8          	movw   %ax,%ds
  10227a:	8e c0          	movw   %ax,%es
  10227c:	8e e0          	movw   %ax,%fs
  10227e:	8e e8          	movw   %ax,%gs
  102280:	89 e0          	movl   %esp,%eax
  102282:	50             	pushl  %eax

00102283 <isr221.1>:
  102283:	b8 48 2a 10 00 	movl   $0x102a48,%eax
  102288:	ff d0          	call   *%eax
  10228a:	e9 89 de ff ff 	jmp    100118 <all_ints>

0010228f <isr222>:
  10228f:	6a 00          	pushl  $0x0
  102291:	6a de          	pushl  $0xffffffde
  102293:	0f a8          	pushl  %gs
  102295:	0f a0          	pushl  %fs
  102297:	06             	pushl  %es
  102298:	1e             	pushl  %ds
  102299:	60             	pusha  
  10229a:	66 b8 10 00    	movw   $0x10,%ax
  10229e:	8e d8          	movw   %ax,%ds
  1022a0:	8e c0          	movw   %ax,%es
  1022a2:	8e e0          	movw   %ax,%fs
  1022a4:	8e e8          	movw   %ax,%gs
  1022a6:	89 e0          	movl   %esp,%eax
  1022a8:	50             	pushl  %eax

001022a9 <isr222.1>:
  1022a9:	b8 48 2a 10 00 	movl   $0x102a48,%eax
  1022ae:	ff d0          	call   *%eax
  1022b0:	e9 63 de ff ff 	jmp    100118 <all_ints>

001022b5 <isr223>:
  1022b5:	6a 00          	pushl  $0x0
  1022b7:	6a df          	pushl  $0xffffffdf
  1022b9:	0f a8          	pushl  %gs
  1022bb:	0f a0          	pushl  %fs
  1022bd:	06             	pushl  %es
  1022be:	1e             	pushl  %ds
  1022bf:	60             	pusha  
  1022c0:	66 b8 10 00    	movw   $0x10,%ax
  1022c4:	8e d8          	movw   %ax,%ds
  1022c6:	8e c0          	movw   %ax,%es
  1022c8:	8e e0          	movw   %ax,%fs
  1022ca:	8e e8          	movw   %ax,%gs
  1022cc:	89 e0          	movl   %esp,%eax
  1022ce:	50             	pushl  %eax

001022cf <isr223.1>:
  1022cf:	b8 48 2a 10 00 	movl   $0x102a48,%eax
  1022d4:	ff d0          	call   *%eax
  1022d6:	e9 3d de ff ff 	jmp    100118 <all_ints>

001022db <isr224>:
  1022db:	6a 00          	pushl  $0x0
  1022dd:	6a e0          	pushl  $0xffffffe0
  1022df:	0f a8          	pushl  %gs
  1022e1:	0f a0          	pushl  %fs
  1022e3:	06             	pushl  %es
  1022e4:	1e             	pushl  %ds
  1022e5:	60             	pusha  
  1022e6:	66 b8 10 00    	movw   $0x10,%ax
  1022ea:	8e d8          	movw   %ax,%ds
  1022ec:	8e c0          	movw   %ax,%es
  1022ee:	8e e0          	movw   %ax,%fs
  1022f0:	8e e8          	movw   %ax,%gs
  1022f2:	89 e0          	movl   %esp,%eax
  1022f4:	50             	pushl  %eax

001022f5 <isr224.1>:
  1022f5:	b8 48 2a 10 00 	movl   $0x102a48,%eax
  1022fa:	ff d0          	call   *%eax
  1022fc:	e9 17 de ff ff 	jmp    100118 <all_ints>

00102301 <isr225>:
  102301:	6a 00          	pushl  $0x0
  102303:	6a e1          	pushl  $0xffffffe1
  102305:	0f a8          	pushl  %gs
  102307:	0f a0          	pushl  %fs
  102309:	06             	pushl  %es
  10230a:	1e             	pushl  %ds
  10230b:	60             	pusha  
  10230c:	66 b8 10 00    	movw   $0x10,%ax
  102310:	8e d8          	movw   %ax,%ds
  102312:	8e c0          	movw   %ax,%es
  102314:	8e e0          	movw   %ax,%fs
  102316:	8e e8          	movw   %ax,%gs
  102318:	89 e0          	movl   %esp,%eax
  10231a:	50             	pushl  %eax

0010231b <isr225.1>:
  10231b:	b8 48 2a 10 00 	movl   $0x102a48,%eax
  102320:	ff d0          	call   *%eax
  102322:	e9 f1 dd ff ff 	jmp    100118 <all_ints>

00102327 <isr226>:
  102327:	6a 00          	pushl  $0x0
  102329:	6a e2          	pushl  $0xffffffe2
  10232b:	0f a8          	pushl  %gs
  10232d:	0f a0          	pushl  %fs
  10232f:	06             	pushl  %es
  102330:	1e             	pushl  %ds
  102331:	60             	pusha  
  102332:	66 b8 10 00    	movw   $0x10,%ax
  102336:	8e d8          	movw   %ax,%ds
  102338:	8e c0          	movw   %ax,%es
  10233a:	8e e0          	movw   %ax,%fs
  10233c:	8e e8          	movw   %ax,%gs
  10233e:	89 e0          	movl   %esp,%eax
  102340:	50             	pushl  %eax

00102341 <isr226.1>:
  102341:	b8 48 2a 10 00 	movl   $0x102a48,%eax
  102346:	ff d0          	call   *%eax
  102348:	e9 cb dd ff ff 	jmp    100118 <all_ints>

0010234d <isr227>:
  10234d:	6a 00          	pushl  $0x0
  10234f:	6a e3          	pushl  $0xffffffe3
  102351:	0f a8          	pushl  %gs
  102353:	0f a0          	pushl  %fs
  102355:	06             	pushl  %es
  102356:	1e             	pushl  %ds
  102357:	60             	pusha  
  102358:	66 b8 10 00    	movw   $0x10,%ax
  10235c:	8e d8          	movw   %ax,%ds
  10235e:	8e c0          	movw   %ax,%es
  102360:	8e e0          	movw   %ax,%fs
  102362:	8e e8          	movw   %ax,%gs
  102364:	89 e0          	movl   %esp,%eax
  102366:	50             	pushl  %eax

00102367 <isr227.1>:
  102367:	b8 48 2a 10 00 	movl   $0x102a48,%eax
  10236c:	ff d0          	call   *%eax
  10236e:	e9 a5 dd ff ff 	jmp    100118 <all_ints>

00102373 <isr228>:
  102373:	6a 00          	pushl  $0x0
  102375:	6a e4          	pushl  $0xffffffe4
  102377:	0f a8          	pushl  %gs
  102379:	0f a0          	pushl  %fs
  10237b:	06             	pushl  %es
  10237c:	1e             	pushl  %ds
  10237d:	60             	pusha  
  10237e:	66 b8 10 00    	movw   $0x10,%ax
  102382:	8e d8          	movw   %ax,%ds
  102384:	8e c0          	movw   %ax,%es
  102386:	8e e0          	movw   %ax,%fs
  102388:	8e e8          	movw   %ax,%gs
  10238a:	89 e0          	movl   %esp,%eax
  10238c:	50             	pushl  %eax

0010238d <isr228.1>:
  10238d:	b8 48 2a 10 00 	movl   $0x102a48,%eax
  102392:	ff d0          	call   *%eax
  102394:	e9 7f dd ff ff 	jmp    100118 <all_ints>

00102399 <isr229>:
  102399:	6a 00          	pushl  $0x0
  10239b:	6a e5          	pushl  $0xffffffe5
  10239d:	0f a8          	pushl  %gs
  10239f:	0f a0          	pushl  %fs
  1023a1:	06             	pushl  %es
  1023a2:	1e             	pushl  %ds
  1023a3:	60             	pusha  
  1023a4:	66 b8 10 00    	movw   $0x10,%ax
  1023a8:	8e d8          	movw   %ax,%ds
  1023aa:	8e c0          	movw   %ax,%es
  1023ac:	8e e0          	movw   %ax,%fs
  1023ae:	8e e8          	movw   %ax,%gs
  1023b0:	89 e0          	movl   %esp,%eax
  1023b2:	50             	pushl  %eax

001023b3 <isr229.1>:
  1023b3:	b8 48 2a 10 00 	movl   $0x102a48,%eax
  1023b8:	ff d0          	call   *%eax
  1023ba:	e9 59 dd ff ff 	jmp    100118 <all_ints>

001023bf <isr230>:
  1023bf:	6a 00          	pushl  $0x0
  1023c1:	6a e6          	pushl  $0xffffffe6
  1023c3:	0f a8          	pushl  %gs
  1023c5:	0f a0          	pushl  %fs
  1023c7:	06             	pushl  %es
  1023c8:	1e             	pushl  %ds
  1023c9:	60             	pusha  
  1023ca:	66 b8 10 00    	movw   $0x10,%ax
  1023ce:	8e d8          	movw   %ax,%ds
  1023d0:	8e c0          	movw   %ax,%es
  1023d2:	8e e0          	movw   %ax,%fs
  1023d4:	8e e8          	movw   %ax,%gs
  1023d6:	89 e0          	movl   %esp,%eax
  1023d8:	50             	pushl  %eax

001023d9 <isr230.1>:
  1023d9:	b8 48 2a 10 00 	movl   $0x102a48,%eax
  1023de:	ff d0          	call   *%eax
  1023e0:	e9 33 dd ff ff 	jmp    100118 <all_ints>

001023e5 <isr231>:
  1023e5:	6a 00          	pushl  $0x0
  1023e7:	6a e7          	pushl  $0xffffffe7
  1023e9:	0f a8          	pushl  %gs
  1023eb:	0f a0          	pushl  %fs
  1023ed:	06             	pushl  %es
  1023ee:	1e             	pushl  %ds
  1023ef:	60             	pusha  
  1023f0:	66 b8 10 00    	movw   $0x10,%ax
  1023f4:	8e d8          	movw   %ax,%ds
  1023f6:	8e c0          	movw   %ax,%es
  1023f8:	8e e0          	movw   %ax,%fs
  1023fa:	8e e8          	movw   %ax,%gs
  1023fc:	89 e0          	movl   %esp,%eax
  1023fe:	50             	pushl  %eax

001023ff <isr231.1>:
  1023ff:	b8 48 2a 10 00 	movl   $0x102a48,%eax
  102404:	ff d0          	call   *%eax
  102406:	e9 0d dd ff ff 	jmp    100118 <all_ints>

0010240b <isr232>:
  10240b:	6a 00          	pushl  $0x0
  10240d:	6a e8          	pushl  $0xffffffe8
  10240f:	0f a8          	pushl  %gs
  102411:	0f a0          	pushl  %fs
  102413:	06             	pushl  %es
  102414:	1e             	pushl  %ds
  102415:	60             	pusha  
  102416:	66 b8 10 00    	movw   $0x10,%ax
  10241a:	8e d8          	movw   %ax,%ds
  10241c:	8e c0          	movw   %ax,%es
  10241e:	8e e0          	movw   %ax,%fs
  102420:	8e e8          	movw   %ax,%gs
  102422:	89 e0          	movl   %esp,%eax
  102424:	50             	pushl  %eax

00102425 <isr232.1>:
  102425:	b8 48 2a 10 00 	movl   $0x102a48,%eax
  10242a:	ff d0          	call   *%eax
  10242c:	e9 e7 dc ff ff 	jmp    100118 <all_ints>

00102431 <isr233>:
  102431:	6a 00          	pushl  $0x0
  102433:	6a e9          	pushl  $0xffffffe9
  102435:	0f a8          	pushl  %gs
  102437:	0f a0          	pushl  %fs
  102439:	06             	pushl  %es
  10243a:	1e             	pushl  %ds
  10243b:	60             	pusha  
  10243c:	66 b8 10 00    	movw   $0x10,%ax
  102440:	8e d8          	movw   %ax,%ds
  102442:	8e c0          	movw   %ax,%es
  102444:	8e e0          	movw   %ax,%fs
  102446:	8e e8          	movw   %ax,%gs
  102448:	89 e0          	movl   %esp,%eax
  10244a:	50             	pushl  %eax

0010244b <isr233.1>:
  10244b:	b8 48 2a 10 00 	movl   $0x102a48,%eax
  102450:	ff d0          	call   *%eax
  102452:	e9 c1 dc ff ff 	jmp    100118 <all_ints>

00102457 <isr234>:
  102457:	6a 00          	pushl  $0x0
  102459:	6a ea          	pushl  $0xffffffea
  10245b:	0f a8          	pushl  %gs
  10245d:	0f a0          	pushl  %fs
  10245f:	06             	pushl  %es
  102460:	1e             	pushl  %ds
  102461:	60             	pusha  
  102462:	66 b8 10 00    	movw   $0x10,%ax
  102466:	8e d8          	movw   %ax,%ds
  102468:	8e c0          	movw   %ax,%es
  10246a:	8e e0          	movw   %ax,%fs
  10246c:	8e e8          	movw   %ax,%gs
  10246e:	89 e0          	movl   %esp,%eax
  102470:	50             	pushl  %eax

00102471 <isr234.1>:
  102471:	b8 48 2a 10 00 	movl   $0x102a48,%eax
  102476:	ff d0          	call   *%eax
  102478:	e9 9b dc ff ff 	jmp    100118 <all_ints>

0010247d <isr235>:
  10247d:	6a 00          	pushl  $0x0
  10247f:	6a eb          	pushl  $0xffffffeb
  102481:	0f a8          	pushl  %gs
  102483:	0f a0          	pushl  %fs
  102485:	06             	pushl  %es
  102486:	1e             	pushl  %ds
  102487:	60             	pusha  
  102488:	66 b8 10 00    	movw   $0x10,%ax
  10248c:	8e d8          	movw   %ax,%ds
  10248e:	8e c0          	movw   %ax,%es
  102490:	8e e0          	movw   %ax,%fs
  102492:	8e e8          	movw   %ax,%gs
  102494:	89 e0          	movl   %esp,%eax
  102496:	50             	pushl  %eax

00102497 <isr235.1>:
  102497:	b8 48 2a 10 00 	movl   $0x102a48,%eax
  10249c:	ff d0          	call   *%eax
  10249e:	e9 75 dc ff ff 	jmp    100118 <all_ints>

001024a3 <isr236>:
  1024a3:	6a 00          	pushl  $0x0
  1024a5:	6a ec          	pushl  $0xffffffec
  1024a7:	0f a8          	pushl  %gs
  1024a9:	0f a0          	pushl  %fs
  1024ab:	06             	pushl  %es
  1024ac:	1e             	pushl  %ds
  1024ad:	60             	pusha  
  1024ae:	66 b8 10 00    	movw   $0x10,%ax
  1024b2:	8e d8          	movw   %ax,%ds
  1024b4:	8e c0          	movw   %ax,%es
  1024b6:	8e e0          	movw   %ax,%fs
  1024b8:	8e e8          	movw   %ax,%gs
  1024ba:	89 e0          	movl   %esp,%eax
  1024bc:	50             	pushl  %eax

001024bd <isr236.1>:
  1024bd:	b8 48 2a 10 00 	movl   $0x102a48,%eax
  1024c2:	ff d0          	call   *%eax
  1024c4:	e9 4f dc ff ff 	jmp    100118 <all_ints>

001024c9 <isr237>:
  1024c9:	6a 00          	pushl  $0x0
  1024cb:	6a ed          	pushl  $0xffffffed
  1024cd:	0f a8          	pushl  %gs
  1024cf:	0f a0          	pushl  %fs
  1024d1:	06             	pushl  %es
  1024d2:	1e             	pushl  %ds
  1024d3:	60             	pusha  
  1024d4:	66 b8 10 00    	movw   $0x10,%ax
  1024d8:	8e d8          	movw   %ax,%ds
  1024da:	8e c0          	movw   %ax,%es
  1024dc:	8e e0          	movw   %ax,%fs
  1024de:	8e e8          	movw   %ax,%gs
  1024e0:	89 e0          	movl   %esp,%eax
  1024e2:	50             	pushl  %eax

001024e3 <isr237.1>:
  1024e3:	b8 48 2a 10 00 	movl   $0x102a48,%eax
  1024e8:	ff d0          	call   *%eax
  1024ea:	e9 29 dc ff ff 	jmp    100118 <all_ints>

001024ef <isr238>:
  1024ef:	6a 00          	pushl  $0x0
  1024f1:	6a ee          	pushl  $0xffffffee
  1024f3:	0f a8          	pushl  %gs
  1024f5:	0f a0          	pushl  %fs
  1024f7:	06             	pushl  %es
  1024f8:	1e             	pushl  %ds
  1024f9:	60             	pusha  
  1024fa:	66 b8 10 00    	movw   $0x10,%ax
  1024fe:	8e d8          	movw   %ax,%ds
  102500:	8e c0          	movw   %ax,%es
  102502:	8e e0          	movw   %ax,%fs
  102504:	8e e8          	movw   %ax,%gs
  102506:	89 e0          	movl   %esp,%eax
  102508:	50             	pushl  %eax

00102509 <isr238.1>:
  102509:	b8 48 2a 10 00 	movl   $0x102a48,%eax
  10250e:	ff d0          	call   *%eax
  102510:	e9 03 dc ff ff 	jmp    100118 <all_ints>

00102515 <isr239>:
  102515:	6a 00          	pushl  $0x0
  102517:	6a ef          	pushl  $0xffffffef
  102519:	0f a8          	pushl  %gs
  10251b:	0f a0          	pushl  %fs
  10251d:	06             	pushl  %es
  10251e:	1e             	pushl  %ds
  10251f:	60             	pusha  
  102520:	66 b8 10 00    	movw   $0x10,%ax
  102524:	8e d8          	movw   %ax,%ds
  102526:	8e c0          	movw   %ax,%es
  102528:	8e e0          	movw   %ax,%fs
  10252a:	8e e8          	movw   %ax,%gs
  10252c:	89 e0          	movl   %esp,%eax
  10252e:	50             	pushl  %eax

0010252f <isr239.1>:
  10252f:	b8 48 2a 10 00 	movl   $0x102a48,%eax
  102534:	ff d0          	call   *%eax
  102536:	e9 dd db ff ff 	jmp    100118 <all_ints>

0010253b <isr240>:
  10253b:	6a 00          	pushl  $0x0
  10253d:	6a f0          	pushl  $0xfffffff0
  10253f:	0f a8          	pushl  %gs
  102541:	0f a0          	pushl  %fs
  102543:	06             	pushl  %es
  102544:	1e             	pushl  %ds
  102545:	60             	pusha  
  102546:	66 b8 10 00    	movw   $0x10,%ax
  10254a:	8e d8          	movw   %ax,%ds
  10254c:	8e c0          	movw   %ax,%es
  10254e:	8e e0          	movw   %ax,%fs
  102550:	8e e8          	movw   %ax,%gs
  102552:	89 e0          	movl   %esp,%eax
  102554:	50             	pushl  %eax

00102555 <isr240.1>:
  102555:	b8 48 2a 10 00 	movl   $0x102a48,%eax
  10255a:	ff d0          	call   *%eax
  10255c:	e9 b7 db ff ff 	jmp    100118 <all_ints>

00102561 <isr241>:
  102561:	6a 00          	pushl  $0x0
  102563:	6a f1          	pushl  $0xfffffff1
  102565:	0f a8          	pushl  %gs
  102567:	0f a0          	pushl  %fs
  102569:	06             	pushl  %es
  10256a:	1e             	pushl  %ds
  10256b:	60             	pusha  
  10256c:	66 b8 10 00    	movw   $0x10,%ax
  102570:	8e d8          	movw   %ax,%ds
  102572:	8e c0          	movw   %ax,%es
  102574:	8e e0          	movw   %ax,%fs
  102576:	8e e8          	movw   %ax,%gs
  102578:	89 e0          	movl   %esp,%eax
  10257a:	50             	pushl  %eax

0010257b <isr241.1>:
  10257b:	b8 48 2a 10 00 	movl   $0x102a48,%eax
  102580:	ff d0          	call   *%eax
  102582:	e9 91 db ff ff 	jmp    100118 <all_ints>

00102587 <isr242>:
  102587:	6a 00          	pushl  $0x0
  102589:	6a f2          	pushl  $0xfffffff2
  10258b:	0f a8          	pushl  %gs
  10258d:	0f a0          	pushl  %fs
  10258f:	06             	pushl  %es
  102590:	1e             	pushl  %ds
  102591:	60             	pusha  
  102592:	66 b8 10 00    	movw   $0x10,%ax
  102596:	8e d8          	movw   %ax,%ds
  102598:	8e c0          	movw   %ax,%es
  10259a:	8e e0          	movw   %ax,%fs
  10259c:	8e e8          	movw   %ax,%gs
  10259e:	89 e0          	movl   %esp,%eax
  1025a0:	50             	pushl  %eax

001025a1 <isr242.1>:
  1025a1:	b8 48 2a 10 00 	movl   $0x102a48,%eax
  1025a6:	ff d0          	call   *%eax
  1025a8:	e9 6b db ff ff 	jmp    100118 <all_ints>

001025ad <isr243>:
  1025ad:	6a 00          	pushl  $0x0
  1025af:	6a f3          	pushl  $0xfffffff3
  1025b1:	0f a8          	pushl  %gs
  1025b3:	0f a0          	pushl  %fs
  1025b5:	06             	pushl  %es
  1025b6:	1e             	pushl  %ds
  1025b7:	60             	pusha  
  1025b8:	66 b8 10 00    	movw   $0x10,%ax
  1025bc:	8e d8          	movw   %ax,%ds
  1025be:	8e c0          	movw   %ax,%es
  1025c0:	8e e0          	movw   %ax,%fs
  1025c2:	8e e8          	movw   %ax,%gs
  1025c4:	89 e0          	movl   %esp,%eax
  1025c6:	50             	pushl  %eax

001025c7 <isr243.1>:
  1025c7:	b8 48 2a 10 00 	movl   $0x102a48,%eax
  1025cc:	ff d0          	call   *%eax
  1025ce:	e9 45 db ff ff 	jmp    100118 <all_ints>

001025d3 <isr244>:
  1025d3:	6a 00          	pushl  $0x0
  1025d5:	6a f4          	pushl  $0xfffffff4
  1025d7:	0f a8          	pushl  %gs
  1025d9:	0f a0          	pushl  %fs
  1025db:	06             	pushl  %es
  1025dc:	1e             	pushl  %ds
  1025dd:	60             	pusha  
  1025de:	66 b8 10 00    	movw   $0x10,%ax
  1025e2:	8e d8          	movw   %ax,%ds
  1025e4:	8e c0          	movw   %ax,%es
  1025e6:	8e e0          	movw   %ax,%fs
  1025e8:	8e e8          	movw   %ax,%gs
  1025ea:	89 e0          	movl   %esp,%eax
  1025ec:	50             	pushl  %eax

001025ed <isr244.1>:
  1025ed:	b8 48 2a 10 00 	movl   $0x102a48,%eax
  1025f2:	ff d0          	call   *%eax
  1025f4:	e9 1f db ff ff 	jmp    100118 <all_ints>

001025f9 <isr245>:
  1025f9:	6a 00          	pushl  $0x0
  1025fb:	6a f5          	pushl  $0xfffffff5
  1025fd:	0f a8          	pushl  %gs
  1025ff:	0f a0          	pushl  %fs
  102601:	06             	pushl  %es
  102602:	1e             	pushl  %ds
  102603:	60             	pusha  
  102604:	66 b8 10 00    	movw   $0x10,%ax
  102608:	8e d8          	movw   %ax,%ds
  10260a:	8e c0          	movw   %ax,%es
  10260c:	8e e0          	movw   %ax,%fs
  10260e:	8e e8          	movw   %ax,%gs
  102610:	89 e0          	movl   %esp,%eax
  102612:	50             	pushl  %eax

00102613 <isr245.1>:
  102613:	b8 48 2a 10 00 	movl   $0x102a48,%eax
  102618:	ff d0          	call   *%eax
  10261a:	e9 f9 da ff ff 	jmp    100118 <all_ints>

0010261f <isr246>:
  10261f:	6a 00          	pushl  $0x0
  102621:	6a f6          	pushl  $0xfffffff6
  102623:	0f a8          	pushl  %gs
  102625:	0f a0          	pushl  %fs
  102627:	06             	pushl  %es
  102628:	1e             	pushl  %ds
  102629:	60             	pusha  
  10262a:	66 b8 10 00    	movw   $0x10,%ax
  10262e:	8e d8          	movw   %ax,%ds
  102630:	8e c0          	movw   %ax,%es
  102632:	8e e0          	movw   %ax,%fs
  102634:	8e e8          	movw   %ax,%gs
  102636:	89 e0          	movl   %esp,%eax
  102638:	50             	pushl  %eax

00102639 <isr246.1>:
  102639:	b8 48 2a 10 00 	movl   $0x102a48,%eax
  10263e:	ff d0          	call   *%eax
  102640:	e9 d3 da ff ff 	jmp    100118 <all_ints>

00102645 <isr247>:
  102645:	6a 00          	pushl  $0x0
  102647:	6a f7          	pushl  $0xfffffff7
  102649:	0f a8          	pushl  %gs
  10264b:	0f a0          	pushl  %fs
  10264d:	06             	pushl  %es
  10264e:	1e             	pushl  %ds
  10264f:	60             	pusha  
  102650:	66 b8 10 00    	movw   $0x10,%ax
  102654:	8e d8          	movw   %ax,%ds
  102656:	8e c0          	movw   %ax,%es
  102658:	8e e0          	movw   %ax,%fs
  10265a:	8e e8          	movw   %ax,%gs
  10265c:	89 e0          	movl   %esp,%eax
  10265e:	50             	pushl  %eax

0010265f <isr247.1>:
  10265f:	b8 48 2a 10 00 	movl   $0x102a48,%eax
  102664:	ff d0          	call   *%eax
  102666:	e9 ad da ff ff 	jmp    100118 <all_ints>

0010266b <isr248>:
  10266b:	6a 00          	pushl  $0x0
  10266d:	6a f8          	pushl  $0xfffffff8
  10266f:	0f a8          	pushl  %gs
  102671:	0f a0          	pushl  %fs
  102673:	06             	pushl  %es
  102674:	1e             	pushl  %ds
  102675:	60             	pusha  
  102676:	66 b8 10 00    	movw   $0x10,%ax
  10267a:	8e d8          	movw   %ax,%ds
  10267c:	8e c0          	movw   %ax,%es
  10267e:	8e e0          	movw   %ax,%fs
  102680:	8e e8          	movw   %ax,%gs
  102682:	89 e0          	movl   %esp,%eax
  102684:	50             	pushl  %eax

00102685 <isr248.1>:
  102685:	b8 48 2a 10 00 	movl   $0x102a48,%eax
  10268a:	ff d0          	call   *%eax
  10268c:	e9 87 da ff ff 	jmp    100118 <all_ints>

00102691 <isr249>:
  102691:	6a 00          	pushl  $0x0
  102693:	6a f9          	pushl  $0xfffffff9
  102695:	0f a8          	pushl  %gs
  102697:	0f a0          	pushl  %fs
  102699:	06             	pushl  %es
  10269a:	1e             	pushl  %ds
  10269b:	60             	pusha  
  10269c:	66 b8 10 00    	movw   $0x10,%ax
  1026a0:	8e d8          	movw   %ax,%ds
  1026a2:	8e c0          	movw   %ax,%es
  1026a4:	8e e0          	movw   %ax,%fs
  1026a6:	8e e8          	movw   %ax,%gs
  1026a8:	89 e0          	movl   %esp,%eax
  1026aa:	50             	pushl  %eax

001026ab <isr249.1>:
  1026ab:	b8 48 2a 10 00 	movl   $0x102a48,%eax
  1026b0:	ff d0          	call   *%eax
  1026b2:	e9 61 da ff ff 	jmp    100118 <all_ints>

001026b7 <isr250>:
  1026b7:	6a 00          	pushl  $0x0
  1026b9:	6a fa          	pushl  $0xfffffffa
  1026bb:	0f a8          	pushl  %gs
  1026bd:	0f a0          	pushl  %fs
  1026bf:	06             	pushl  %es
  1026c0:	1e             	pushl  %ds
  1026c1:	60             	pusha  
  1026c2:	66 b8 10 00    	movw   $0x10,%ax
  1026c6:	8e d8          	movw   %ax,%ds
  1026c8:	8e c0          	movw   %ax,%es
  1026ca:	8e e0          	movw   %ax,%fs
  1026cc:	8e e8          	movw   %ax,%gs
  1026ce:	89 e0          	movl   %esp,%eax
  1026d0:	50             	pushl  %eax

001026d1 <isr250.1>:
  1026d1:	b8 48 2a 10 00 	movl   $0x102a48,%eax
  1026d6:	ff d0          	call   *%eax
  1026d8:	e9 3b da ff ff 	jmp    100118 <all_ints>

001026dd <isr251>:
  1026dd:	6a 00          	pushl  $0x0
  1026df:	6a fb          	pushl  $0xfffffffb
  1026e1:	0f a8          	pushl  %gs
  1026e3:	0f a0          	pushl  %fs
  1026e5:	06             	pushl  %es
  1026e6:	1e             	pushl  %ds
  1026e7:	60             	pusha  
  1026e8:	66 b8 10 00    	movw   $0x10,%ax
  1026ec:	8e d8          	movw   %ax,%ds
  1026ee:	8e c0          	movw   %ax,%es
  1026f0:	8e e0          	movw   %ax,%fs
  1026f2:	8e e8          	movw   %ax,%gs
  1026f4:	89 e0          	movl   %esp,%eax
  1026f6:	50             	pushl  %eax

001026f7 <isr251.1>:
  1026f7:	b8 48 2a 10 00 	movl   $0x102a48,%eax
  1026fc:	ff d0          	call   *%eax
  1026fe:	e9 15 da ff ff 	jmp    100118 <all_ints>

00102703 <isr252>:
  102703:	6a 00          	pushl  $0x0
  102705:	6a fc          	pushl  $0xfffffffc
  102707:	0f a8          	pushl  %gs
  102709:	0f a0          	pushl  %fs
  10270b:	06             	pushl  %es
  10270c:	1e             	pushl  %ds
  10270d:	60             	pusha  
  10270e:	66 b8 10 00    	movw   $0x10,%ax
  102712:	8e d8          	movw   %ax,%ds
  102714:	8e c0          	movw   %ax,%es
  102716:	8e e0          	movw   %ax,%fs
  102718:	8e e8          	movw   %ax,%gs
  10271a:	89 e0          	movl   %esp,%eax
  10271c:	50             	pushl  %eax

0010271d <isr252.1>:
  10271d:	b8 48 2a 10 00 	movl   $0x102a48,%eax
  102722:	ff d0          	call   *%eax
  102724:	e9 ef d9 ff ff 	jmp    100118 <all_ints>

00102729 <isr253>:
  102729:	6a 00          	pushl  $0x0
  10272b:	6a fd          	pushl  $0xfffffffd
  10272d:	0f a8          	pushl  %gs
  10272f:	0f a0          	pushl  %fs
  102731:	06             	pushl  %es
  102732:	1e             	pushl  %ds
  102733:	60             	pusha  
  102734:	66 b8 10 00    	movw   $0x10,%ax
  102738:	8e d8          	movw   %ax,%ds
  10273a:	8e c0          	movw   %ax,%es
  10273c:	8e e0          	movw   %ax,%fs
  10273e:	8e e8          	movw   %ax,%gs
  102740:	89 e0          	movl   %esp,%eax
  102742:	50             	pushl  %eax

00102743 <isr253.1>:
  102743:	b8 48 2a 10 00 	movl   $0x102a48,%eax
  102748:	ff d0          	call   *%eax
  10274a:	e9 c9 d9 ff ff 	jmp    100118 <all_ints>

0010274f <isr254>:
  10274f:	6a 00          	pushl  $0x0
  102751:	6a fe          	pushl  $0xfffffffe
  102753:	0f a8          	pushl  %gs
  102755:	0f a0          	pushl  %fs
  102757:	06             	pushl  %es
  102758:	1e             	pushl  %ds
  102759:	60             	pusha  
  10275a:	66 b8 10 00    	movw   $0x10,%ax
  10275e:	8e d8          	movw   %ax,%ds
  102760:	8e c0          	movw   %ax,%es
  102762:	8e e0          	movw   %ax,%fs
  102764:	8e e8          	movw   %ax,%gs
  102766:	89 e0          	movl   %esp,%eax
  102768:	50             	pushl  %eax

00102769 <isr254.1>:
  102769:	b8 48 2a 10 00 	movl   $0x102a48,%eax
  10276e:	ff d0          	call   *%eax
  102770:	e9 a3 d9 ff ff 	jmp    100118 <all_ints>

00102775 <isr255>:
  102775:	6a 00          	pushl  $0x0
  102777:	6a ff          	pushl  $0xffffffff
  102779:	0f a8          	pushl  %gs
  10277b:	0f a0          	pushl  %fs
  10277d:	06             	pushl  %es
  10277e:	1e             	pushl  %ds
  10277f:	60             	pusha  
  102780:	66 b8 10 00    	movw   $0x10,%ax
  102784:	8e d8          	movw   %ax,%ds
  102786:	8e c0          	movw   %ax,%es
  102788:	8e e0          	movw   %ax,%fs
  10278a:	8e e8          	movw   %ax,%gs
  10278c:	89 e0          	movl   %esp,%eax
  10278e:	50             	pushl  %eax

0010278f <isr255.1>:
  10278f:	b8 48 2a 10 00 	movl   $0x102a48,%eax
  102794:	ff d0          	call   *%eax
  102796:	e9 7d d9 ff ff 	jmp    100118 <all_ints>
	...

0010279c <LC33>:
  10279c:	49             	decl   %ecx
  10279d:	52             	pushl  %edx
  10279e:	51             	pushl  %ecx
  10279f:	31 35 00 49 52 	xorl   %esi,0x51524900
  1027a4:	51 

001027a2 <LC32>:
  1027a2:	49             	decl   %ecx
  1027a3:	52             	pushl  %edx
  1027a4:	51             	pushl  %ecx
  1027a5:	31 34 00       	xorl   %esi,(%eax,%eax,1)

001027a8 <LC31>:
  1027a8:	49             	decl   %ecx
  1027a9:	52             	pushl  %edx
  1027aa:	51             	pushl  %ecx
  1027ab:	31 33          	xorl   %esi,(%ebx)
	...

001027ae <LC30>:
  1027ae:	49             	decl   %ecx
  1027af:	52             	pushl  %edx
  1027b0:	51             	pushl  %ecx
  1027b1:	31 32          	xorl   %esi,(%edx)
	...

001027b4 <LC29>:
  1027b4:	49             	decl   %ecx
  1027b5:	52             	pushl  %edx
  1027b6:	51             	pushl  %ecx
  1027b7:	31 31          	xorl   %esi,(%ecx)
	...

001027ba <LC28>:
  1027ba:	49             	decl   %ecx
  1027bb:	52             	pushl  %edx
  1027bc:	51             	pushl  %ecx
  1027bd:	31 30          	xorl   %esi,(%eax)
	...

001027c0 <LC27>:
  1027c0:	49             	decl   %ecx
  1027c1:	52             	pushl  %edx
  1027c2:	51             	pushl  %ecx
  1027c3:	39 00          	cmpl   %eax,(%eax)

001027c5 <LC26>:
  1027c5:	49             	decl   %ecx
  1027c6:	52             	pushl  %edx
  1027c7:	51             	pushl  %ecx
  1027c8:	38 00          	cmpb   %al,(%eax)

001027ca <LC25>:
  1027ca:	49             	decl   %ecx
  1027cb:	52             	pushl  %edx
  1027cc:	51             	pushl  %ecx
  1027cd:	37             	aaa    
	...

001027cf <LC24>:
  1027cf:	49             	decl   %ecx
  1027d0:	52             	pushl  %edx
  1027d1:	51             	pushl  %ecx
  1027d2:	36 00 49 52    	addb   %cl,%ss:0x52(%ecx)

001027d4 <LC23>:
  1027d4:	49             	decl   %ecx
  1027d5:	52             	pushl  %edx
  1027d6:	51             	pushl  %ecx
  1027d7:	35 00 49 52 51 	xorl   $0x51524900,%eax

001027d9 <LC22>:
  1027d9:	49             	decl   %ecx
  1027da:	52             	pushl  %edx
  1027db:	51             	pushl  %ecx
  1027dc:	34 00          	xorb   $0x0,%al

001027de <LC21>:
  1027de:	49             	decl   %ecx
  1027df:	52             	pushl  %edx
  1027e0:	51             	pushl  %ecx
  1027e1:	33 00          	xorl   (%eax),%eax

001027e3 <LC20>:
  1027e3:	49             	decl   %ecx
  1027e4:	52             	pushl  %edx
  1027e5:	51             	pushl  %ecx
  1027e6:	32 00          	xorb   (%eax),%al

001027e8 <LC19>:
  1027e8:	49             	decl   %ecx
  1027e9:	52             	pushl  %edx
  1027ea:	51             	pushl  %ecx
  1027eb:	31 00          	xorl   %eax,(%eax)

001027ed <LC18>:
  1027ed:	49             	decl   %ecx
  1027ee:	52             	pushl  %edx
  1027ef:	51             	pushl  %ecx
  1027f0:	30 00          	xorb   %al,(%eax)

001027f2 <LC17>:
  1027f2:	41             	incl   %ecx
  1027f3:	4c             	decl   %esp
  1027f4:	49             	decl   %ecx
  1027f5:	47             	incl   %edi
  1027f6:	4e             	decl   %esi
  1027f7:	4d             	decl   %ebp
  1027f8:	45             	incl   %ebp
  1027f9:	4e             	decl   %esi
  1027fa:	54             	pushl  %esp
  1027fb:	20 43 48       	andb   %al,0x48(%ebx)
  1027fe:	45             	incl   %ebp
  1027ff:	43             	incl   %ebx
  102800:	4b             	decl   %ebx
	...

00102802 <LC16>:
  102802:	43             	incl   %ebx
  102803:	4f             	decl   %edi
  102804:	50             	pushl  %eax
  102805:	52             	pushl  %edx
  102806:	4f             	decl   %edi
  102807:	43             	incl   %ebx
  102808:	45             	incl   %ebp
  102809:	53             	pushl  %ebx
  10280a:	53             	pushl  %ebx
  10280b:	4f             	decl   %edi
  10280c:	52             	pushl  %edx
  10280d:	20 45 52       	andb   %al,0x52(%ebp)
  102810:	52             	pushl  %edx
  102811:	4f             	decl   %edi
  102812:	52             	pushl  %edx
	...

00102814 <LC15>:
  102814:	55             	pushl  %ebp
  102815:	4e             	decl   %esi
  102816:	4b             	decl   %ebx
  102817:	4e             	decl   %esi
  102818:	4f             	decl   %edi
  102819:	57             	pushl  %edi
  10281a:	4e             	decl   %esi
  10281b:	20 49 4e       	andb   %cl,0x4e(%ecx)
  10281e:	54             	pushl  %esp
  10281f:	45             	incl   %ebp
  102820:	52             	pushl  %edx
  102821:	52             	pushl  %edx
  102822:	55             	pushl  %ebp
  102823:	50             	pushl  %eax
  102824:	54             	pushl  %esp
	...

00102826 <LC14>:
  102826:	50             	pushl  %eax
  102827:	41             	incl   %ecx
  102828:	47             	incl   %edi
  102829:	45             	incl   %ebp
  10282a:	20 46 41       	andb   %al,0x41(%esi)
  10282d:	55             	pushl  %ebp
  10282e:	4c             	decl   %esp
  10282f:	54             	pushl  %esp
	...

00102831 <LC13>:
  102831:	47             	incl   %edi
  102832:	45             	incl   %ebp
  102833:	4e             	decl   %esi
  102834:	45             	incl   %ebp
  102835:	52             	pushl  %edx
  102836:	41             	incl   %ecx
  102837:	4c             	decl   %esp
  102838:	20 50 52       	andb   %dl,0x52(%eax)
  10283b:	4f             	decl   %edi
  10283c:	54             	pushl  %esp
  10283d:	45             	incl   %ebp
  10283e:	43             	incl   %ebx
  10283f:	54             	pushl  %esp
  102840:	49             	decl   %ecx
  102841:	4f             	decl   %edi
  102842:	4e             	decl   %esi
  102843:	20 46 41       	andb   %al,0x41(%esi)
  102846:	55             	pushl  %ebp
  102847:	4c             	decl   %esp
  102848:	54             	pushl  %esp
	...

0010284a <LC12>:
  10284a:	53             	pushl  %ebx
  10284b:	54             	pushl  %esp
  10284c:	41             	incl   %ecx
  10284d:	43             	incl   %ebx
  10284e:	4b             	decl   %ebx
  10284f:	20 46 41       	andb   %al,0x41(%esi)
  102852:	55             	pushl  %ebp
  102853:	4c             	decl   %esp
  102854:	54             	pushl  %esp
	...

00102856 <LC11>:
  102856:	53             	pushl  %ebx
  102857:	45             	incl   %ebp
  102858:	47             	incl   %edi
  102859:	4d             	decl   %ebp
  10285a:	45             	incl   %ebp
  10285b:	4e             	decl   %esi
  10285c:	54             	pushl  %esp
  10285d:	20 4e 4f       	andb   %cl,0x4f(%esi)
  102860:	54             	pushl  %esp
  102861:	20 50 52       	andb   %dl,0x52(%eax)
  102864:	45             	incl   %ebp
  102865:	53             	pushl  %ebx
  102866:	45             	incl   %ebp
  102867:	4e             	decl   %esi
  102868:	54             	pushl  %esp
	...

0010286a <LC10>:
  10286a:	42             	incl   %edx
  10286b:	41             	incl   %ecx
  10286c:	44             	incl   %esp
  10286d:	20 54 53 53    	andb   %dl,0x53(%ebx,%edx,2)
	...

00102872 <LC9>:
  102872:	43             	incl   %ebx
  102873:	4f             	decl   %edi
  102874:	50             	pushl  %eax
  102875:	52             	pushl  %edx
  102876:	4f             	decl   %edi
  102877:	43             	incl   %ebx
  102878:	45             	incl   %ebp
  102879:	53             	pushl  %ebx
  10287a:	53             	pushl  %ebx
  10287b:	4f             	decl   %edi
  10287c:	52             	pushl  %edx
  10287d:	20 53 45       	andb   %dl,0x45(%ebx)
  102880:	47             	incl   %edi
  102881:	4d             	decl   %ebp
  102882:	45             	incl   %ebp
  102883:	4e             	decl   %esi
  102884:	54             	pushl  %esp
  102885:	20 4f 56       	andb   %cl,0x56(%edi)
  102888:	45             	incl   %ebp
  102889:	52             	pushl  %edx
  10288a:	52             	pushl  %edx
  10288b:	55             	pushl  %ebp
  10288c:	4e             	decl   %esi
	...

0010288e <LC8>:
  10288e:	44             	incl   %esp
  10288f:	4f             	decl   %edi
  102890:	55             	pushl  %ebp
  102891:	42             	incl   %edx
  102892:	4c             	decl   %esp
  102893:	45             	incl   %ebp
  102894:	20 46 41       	andb   %al,0x41(%esi)
  102897:	55             	pushl  %ebp
  102898:	4c             	decl   %esp
  102899:	54             	pushl  %esp
	...

0010289b <LC7>:
  10289b:	4e             	decl   %esi
  10289c:	4f             	decl   %edi
  10289d:	20 43 4f       	andb   %al,0x4f(%ebx)
  1028a0:	50             	pushl  %eax
  1028a1:	52             	pushl  %edx
  1028a2:	4f             	decl   %edi
  1028a3:	43             	incl   %ebx
  1028a4:	45             	incl   %ebp
  1028a5:	53             	pushl  %ebx
  1028a6:	53             	pushl  %ebx
  1028a7:	4f             	decl   %edi
  1028a8:	52             	pushl  %edx
	...

001028aa <LC6>:
  1028aa:	49             	decl   %ecx
  1028ab:	4e             	decl   %esi
  1028ac:	56             	pushl  %esi
  1028ad:	41             	incl   %ecx
  1028ae:	4c             	decl   %esp
  1028af:	49             	decl   %ecx
  1028b0:	44             	incl   %esp
  1028b1:	20 4f 50       	andb   %cl,0x50(%edi)
  1028b4:	43             	incl   %ebx
  1028b5:	4f             	decl   %edi
  1028b6:	44             	incl   %esp
  1028b7:	45             	incl   %ebp
	...

001028b9 <LC5>:
  1028b9:	42             	incl   %edx
  1028ba:	4f             	decl   %edi
  1028bb:	55             	pushl  %ebp
  1028bc:	4e             	decl   %esi
  1028bd:	44             	incl   %esp
  1028be:	20 45 58       	andb   %al,0x58(%ebp)
  1028c1:	43             	incl   %ebx
  1028c2:	45             	incl   %ebp
  1028c3:	50             	pushl  %eax
  1028c4:	54             	pushl  %esp
  1028c5:	49             	decl   %ecx
  1028c6:	4f             	decl   %edi
  1028c7:	4e             	decl   %esi
	...

001028c9 <LC4>:
  1028c9:	49             	decl   %ecx
  1028ca:	4e             	decl   %esi
  1028cb:	54             	pushl  %esp
  1028cc:	4f             	decl   %edi
	...

001028ce <LC3>:
  1028ce:	49             	decl   %ecx
  1028cf:	4e             	decl   %esi
  1028d0:	54             	pushl  %esp
  1028d1:	33 00          	xorl   (%eax),%eax

001028d3 <LC2>:
  1028d3:	4e             	decl   %esi
  1028d4:	4d             	decl   %ebp
  1028d5:	49             	decl   %ecx
	...

001028d7 <LC1>:
  1028d7:	44             	incl   %esp
  1028d8:	45             	incl   %ebp
  1028d9:	42             	incl   %edx
  1028da:	55             	pushl  %ebp
  1028db:	47             	incl   %edi
  1028dc:	20 45 58       	andb   %al,0x58(%ebp)
  1028df:	43             	incl   %ebx
  1028e0:	45             	incl   %ebp
  1028e1:	50             	pushl  %eax
  1028e2:	54             	pushl  %esp
  1028e3:	49             	decl   %ecx
  1028e4:	4f             	decl   %edi
  1028e5:	4e             	decl   %esi
	...

001028e7 <LC0>:
  1028e7:	44             	incl   %esp
  1028e8:	49             	decl   %ecx
  1028e9:	56             	pushl  %esi
  1028ea:	49             	decl   %ecx
  1028eb:	44             	incl   %esp
  1028ec:	45             	incl   %ebp
  1028ed:	20 45 52       	andb   %al,0x52(%ebp)
  1028f0:	52             	pushl  %edx
  1028f1:	4f             	decl   %edi
  1028f2:	52             	pushl  %edx
	...

001028f4 <LC34>:
  1028f4:	45             	incl   %ebp
  1028f5:	78 63          	js     10295a <LC35+2f>
  1028f7:	65 70 74       	jo     10296e <LC36+f>
  1028fa:	69 6f 6e 3a 20 	imull  $0x7325203a,0x6e(%edi),%ebp
  1028ff:	25 73 
  102901:	20 5b 25       	andb   %bl,0x25(%ebx)
  102904:	30 32          	xorb   %dh,(%edx)
  102906:	58             	popl   %eax
  102907:	5d             	popl   %ebp
  102908:	20 28          	andb   %ch,(%eax)
  10290a:	45             	incl   %ebp
  10290b:	72 72          	jb     10297f <LC36+20>
  10290d:	6f             	outsl  %ds:(%esi),(%dx)
  10290e:	72 20          	jb     102930 <LC35+5>
  102910:	43             	incl   %ebx
  102911:	6f             	outsl  %ds:(%esi),(%dx)
  102912:	64 65 20 25 30 	andb   %ah,%fs:%gs:0x29583430
  102917:	34 58 29 
  10291a:	20 20          	andb   %ah,(%eax)
  10291c:	61             	popa   
  10291d:	74 20          	je     10293f <LC35+14>
  10291f:	20 25 30 34 58 	andb   %ah,0x3a583430
  102924:	3a 
  102925:	25 30 38 58 0a 	andl   $0xa583830,%eax
	...

0010292b <LC35>:
  10292b:	45             	incl   %ebp
  10292c:	78 63          	js     102991 <LC37+6>
  10292e:	65 70 74       	jo     1029a5 <LC37+1a>
  102931:	69 6f 6e 3a 20 	imull  $0x255b203a,0x6e(%edi),%ebp
  102936:	5b 25 
  102938:	30 32          	xorb   %dh,(%edx)
  10293a:	58             	popl   %eax
  10293b:	5d             	popl   %ebp
  10293c:	20 28          	andb   %ch,(%eax)
  10293e:	45             	incl   %ebp
  10293f:	72 72          	jb     1029b3 <LC37+28>
  102941:	6f             	outsl  %ds:(%esi),(%dx)
  102942:	72 20          	jb     102964 <LC36+5>
  102944:	43             	incl   %ebx
  102945:	6f             	outsl  %ds:(%esi),(%dx)
  102946:	64 65 20 25 30 	andb   %ah,%fs:%gs:0x29583430
  10294b:	34 58 29 
  10294e:	20 20          	andb   %ah,(%eax)
  102950:	61             	popa   
  102951:	74 20          	je     102973 <LC36+14>
  102953:	20 25 30 34 58 	andb   %ah,0x3a583430
  102958:	3a 
  102959:	25 30 38 58 0a 	andl   $0xa583830,%eax
	...

0010295f <LC36>:
  10295f:	45             	incl   %ebp
  102960:	41             	incl   %ecx
  102961:	58             	popl   %eax
  102962:	3a 20          	cmpb   (%eax),%ah
  102964:	25 30 38 58 20 	andl   $0x20583830,%eax
  102969:	20 45 42       	andb   %al,0x42(%ebp)
  10296c:	58             	popl   %eax
  10296d:	3a 20          	cmpb   (%eax),%ah
  10296f:	25 30 38 58 20 	andl   $0x20583830,%eax
  102974:	20 45 43       	andb   %al,0x43(%ebp)
  102977:	58             	popl   %eax
  102978:	3a 20          	cmpb   (%eax),%ah
  10297a:	25 30 38 58 20 	andl   $0x20583830,%eax
  10297f:	20 45 44       	andb   %al,0x44(%ebp)
  102982:	58             	popl   %eax
  102983:	3a 20          	cmpb   (%eax),%ah
  102985:	25 30 38 58 0a 	andl   $0xa583830,%eax
	...

0010298b <LC37>:
  10298b:	45             	incl   %ebp
  10298c:	44             	incl   %esp
  10298d:	49             	decl   %ecx
  10298e:	3a 20          	cmpb   (%eax),%ah
  102990:	25 30 38 58 20 	andl   $0x20583830,%eax
  102995:	20 45 53       	andb   %al,0x53(%ebp)
  102998:	49             	decl   %ecx
  102999:	3a 20          	cmpb   (%eax),%ah
  10299b:	25 30 38 58 20 	andl   $0x20583830,%eax
  1029a0:	20 45 42       	andb   %al,0x42(%ebp)
  1029a3:	50             	pushl  %eax
  1029a4:	3a 20          	cmpb   (%eax),%ah
  1029a6:	25 30 38 58 20 	andl   $0x20583830,%eax
  1029ab:	20 45 53       	andb   %al,0x53(%ebp)
  1029ae:	50             	pushl  %eax
  1029af:	3a 20          	cmpb   (%eax),%ah
  1029b1:	25 30 38 58 0a 	andl   $0xa583830,%eax
	...

001029b7 <LC38>:
  1029b7:	44             	incl   %esp
  1029b8:	53             	pushl  %ebx
  1029b9:	20 3a          	andb   %bh,(%edx)
  1029bb:	20 25 30 34 58 	andb   %ah,0x20583430
  1029c0:	20 
  1029c1:	20 20          	andb   %ah,(%eax)
  1029c3:	20 20          	andb   %ah,(%eax)
  1029c5:	20 45 53       	andb   %al,0x53(%ebp)
  1029c8:	20 3a          	andb   %bh,(%edx)
  1029ca:	20 25 30 34 58 	andb   %ah,0x20583430
  1029cf:	20 
  1029d0:	20 20          	andb   %ah,(%eax)
  1029d2:	20 20          	andb   %ah,(%eax)
  1029d4:	20 46 53       	andb   %al,0x53(%esi)
  1029d7:	20 3a          	andb   %bh,(%edx)
  1029d9:	20 25 30 34 58 	andb   %ah,0x20583430
  1029de:	20 
  1029df:	20 20          	andb   %ah,(%eax)
  1029e1:	20 20          	andb   %ah,(%eax)
  1029e3:	20 47 53       	andb   %al,0x53(%edi)
  1029e6:	20 3a          	andb   %bh,(%edx)
  1029e8:	20 25 30 34 58 	andb   %ah,0xa583430
  1029ed:	0a 
	...

001029ef <LC39>:
  1029ef:	55             	pushl  %ebp
  1029f0:	73 65          	jae    102a57 <_fault_wrapper+f>
  1029f2:	72 20          	jb     102a14 <LC40+e>
  1029f4:	53             	pushl  %ebx
  1029f5:	74 61          	je     102a58 <_fault_wrapper+10>
  1029f7:	63 6b 3a       	arpl   %bp,0x3a(%ebx)
  1029fa:	20 25 30 34 58 	andb   %ah,0x3a583430
  1029ff:	3a 
  102a00:	25 30 38 58 0a 	andl   $0xa583830,%eax
	...

00102a06 <LC40>:
  102a06:	2d 2d 2d 2d 2d 	subl   $0x2d2d2d2d,%eax
  102a0b:	2d 2d 2d 2d 2d 	subl   $0x2d2d2d2d,%eax
  102a10:	2d 2d 2d 2d 2d 	subl   $0x2d2d2d2d,%eax
  102a15:	2d 2d 2d 2d 2d 	subl   $0x2d2d2d2d,%eax
  102a1a:	20 43 4f       	andb   %al,0x4f(%ebx)
  102a1d:	44             	incl   %esp
  102a1e:	45             	incl   %ebp
  102a1f:	20 44 55 4d    	andb   %al,0x4d(%ebp,%edx,2)
  102a23:	50             	pushl  %eax
  102a24:	20 2d 2d 2d 2d 	andb   %ch,0x2d2d2d2d
  102a29:	2d 
  102a2a:	2d 2d 2d 2d 2d 	subl   $0x2d2d2d2d,%eax
  102a2f:	2d 2d 2d 2d 2d 	subl   $0x2d2d2d2d,%eax
  102a34:	2d 2d 2d 2d 2d 	subl   $0x2d2d2d2d,%eax
  102a39:	2d 2d 2d 2d 2d 	subl   $0x2d2d2d2d,%eax
  102a3e:	2d 2d 0a 00 25 	subl   $0x25000a2d,%eax

00102a42 <LC41>:
  102a42:	25 30 32 58 20 	andl   $0x20583230,%eax
	...

00102a48 <_fault_wrapper>:
	mov ax,KERNEL_DATA_SELECTOR
	mov ds,ax
	mov es,ax
	mov ss,ax
	mov fs,ax
  102a48:	55             	pushl  %ebp
  102a49:	89 e5          	movl   %esp,%ebp
  102a4b:	56             	pushl  %esi
  102a4c:	53             	pushl  %ebx
  102a4d:	8b 75 08       	movl   0x8(%ebp),%esi
  102a50:	0f b6 5e 30    	movzbl 0x30(%esi),%ebx
  102a54:	83 fb 30       	cmpl   $0x30,%ebx
  102a57:	7f 23          	jg     102a7c <L2>
  102a59:	ff 76 38       	pushl  0x38(%esi)
  102a5c:	0f b7 46 3c    	movzwl 0x3c(%esi),%eax
  102a60:	50             	pushl  %eax
  102a61:	ff 76 34       	pushl  0x34(%esi)
  102a64:	53             	pushl  %ebx
  102a65:	ff 34 9d 50 48 	pushl  0x104850(,%ebx,4)
  102a6a:	10 00 
  102a6c:	68 f4 28 10 00 	pushl  $0x1028f4
  102a71:	e8 ca 05 00 00 	call   103040 <_cprintf>
  102a76:	83 c4 18       	addl   $0x18,%esp
  102a79:	eb 1a          	jmp    102a95 <L3>
  102a7b:	90             	nop    

00102a7c <L2>:
  102a7c:	ff 76 38       	pushl  0x38(%esi)
  102a7f:	0f b7 46 3c    	movzwl 0x3c(%esi),%eax
  102a83:	50             	pushl  %eax
  102a84:	ff 76 34       	pushl  0x34(%esi)
  102a87:	53             	pushl  %ebx
  102a88:	68 2b 29 10 00 	pushl  $0x10292b
  102a8d:	e8 ae 05 00 00 	call   103040 <_cprintf>
  102a92:	83 c4 14       	addl   $0x14,%esp

00102a95 <L3>:
  102a95:	ff 76 14       	pushl  0x14(%esi)
  102a98:	ff 76 18       	pushl  0x18(%esi)
  102a9b:	ff 76 10       	pushl  0x10(%esi)
  102a9e:	ff 76 1c       	pushl  0x1c(%esi)
  102aa1:	68 5f 29 10 00 	pushl  $0x10295f
  102aa6:	e8 95 05 00 00 	call   103040 <_cprintf>
  102aab:	ff 76 0c       	pushl  0xc(%esi)
  102aae:	ff 76 08       	pushl  0x8(%esi)
  102ab1:	ff 76 04       	pushl  0x4(%esi)
  102ab4:	ff 36          	pushl  (%esi)
  102ab6:	68 8b 29 10 00 	pushl  $0x10298b
  102abb:	e8 80 05 00 00 	call   103040 <_cprintf>
  102ac0:	83 c4 28       	addl   $0x28,%esp
  102ac3:	0f b7 46 2c    	movzwl 0x2c(%esi),%eax
  102ac7:	50             	pushl  %eax
  102ac8:	0f b7 46 28    	movzwl 0x28(%esi),%eax
  102acc:	50             	pushl  %eax
  102acd:	0f b7 46 24    	movzwl 0x24(%esi),%eax
  102ad1:	50             	pushl  %eax
  102ad2:	0f b7 46 20    	movzwl 0x20(%esi),%eax
  102ad6:	50             	pushl  %eax
  102ad7:	68 b7 29 10 00 	pushl  $0x1029b7
  102adc:	e8 5f 05 00 00 	call   103040 <_cprintf>
  102ae1:	ff 76 44       	pushl  0x44(%esi)
  102ae4:	0f b7 46 48    	movzwl 0x48(%esi),%eax
  102ae8:	50             	pushl  %eax
  102ae9:	68 ef 29 10 00 	pushl  $0x1029ef
  102aee:	e8 4d 05 00 00 	call   103040 <_cprintf>
  102af3:	83 c4 20       	addl   $0x20,%esp
  102af6:	68 06 2a 10 00 	pushl  $0x102a06
  102afb:	e8 40 05 00 00 	call   103040 <_cprintf>
  102b00:	8b 76 38       	movl   0x38(%esi),%esi
  102b03:	31 db          	xorl   %ebx,%ebx
  102b05:	83 c4 04       	addl   $0x4,%esp

00102b08 <L7>:
  102b08:	0f b6 06       	movzbl (%esi),%eax
  102b0b:	50             	pushl  %eax
  102b0c:	68 42 2a 10 00 	pushl  $0x102a42
  102b11:	e8 2a 05 00 00 	call   103040 <_cprintf>
  102b16:	83 c4 08       	addl   $0x8,%esp
  102b19:	43             	incl   %ebx
  102b1a:	46             	incl   %esi
  102b1b:	83 fb 13       	cmpl   $0x13,%ebx
  102b1e:	7e e8          	jle    102b08 <L7>

00102b20 <L9>:
  102b20:	eb fe          	jmp    102b20 <L9>
  102b22:	89 f6          	movl   %esi,%esi

00102b24 <_irq0_int>:
  102b24:	20 00          	andb   %al,(%eax)
	...

00102b28 <_irq8_int>:
  102b28:	28 00          	subb   %al,(%eax)
	...

00102b2c <LC42>:
  102b2c:	45             	incl   %ebp
  102b2d:	6e             	outsb  %ds:(%esi),(%dx)
  102b2e:	61             	popa   
  102b2f:	62 6c 69 6e    	boundl 0x6e(%ecx,%ebp,2),%ebp
  102b33:	67 20 38       	addr16 andb %bh,(bx+si)
  102b36:	32 35 39 73 20 	xorb   0x69207339,%dh
  102b3b:	69 
  102b3c:	6e             	outsb  %ds:(%esi),(%dx)
  102b3d:	74 65          	je     102ba4 <_init_8259s+48>
  102b3f:	72 72          	jb     102bb3 <_init_8259s+57>
  102b41:	75 70          	jne    102bb3 <_init_8259s+57>
  102b43:	74 20          	je     102b65 <_init_8259s+9>
  102b45:	63 6f 6e       	arpl   %bp,0x6e(%edi)
  102b48:	74 72          	je     102bbc <_init_8259s+60>
  102b4a:	6f             	outsl  %ds:(%esi),(%dx)
  102b4b:	6c             	insb   (%dx),%es:(%edi)
  102b4c:	6c             	insb   (%dx),%es:(%edi)
  102b4d:	65 72 20       	jb     102b70 <_init_8259s+14>
  102b50:	2e 2e 2e 20 00 	andb   %al,%cs:(%eax)

00102b55 <LC43>:
  102b55:	44             	incl   %esp
  102b56:	4f             	decl   %edi
  102b57:	4e             	decl   %esi
  102b58:	45             	incl   %ebp
  102b59:	2e 0a 00       	orb    %cs:(%eax),%al

00102b5c <_init_8259s>:
  102b5c:	55             	pushl  %ebp
  102b5d:	89 e5          	movl   %esp,%ebp
  102b5f:	68 2c 2b 10 00 	pushl  $0x102b2c
  102b64:	e8 d7 04 00 00 	call   103040 <_cprintf>
  102b69:	6a 11          	pushl  $0x11
  102b6b:	6a 20          	pushl  $0x20
  102b6d:	e8 fa 04 00 00 	call   10306c <_outportb>
  102b72:	6a 11          	pushl  $0x11
  102b74:	68 a0 00 00 00 	pushl  $0xa0
  102b79:	e8 ee 04 00 00 	call   10306c <_outportb>
  102b7e:	6a 20          	pushl  $0x20
  102b80:	6a 21          	pushl  $0x21
  102b82:	e8 e5 04 00 00 	call   10306c <_outportb>
  102b87:	6a 28          	pushl  $0x28
  102b89:	68 a1 00 00 00 	pushl  $0xa1
  102b8e:	e8 d9 04 00 00 	call   10306c <_outportb>
  102b93:	83 c4 24       	addl   $0x24,%esp
  102b96:	6a 04          	pushl  $0x4
  102b98:	6a 21          	pushl  $0x21
  102b9a:	e8 cd 04 00 00 	call   10306c <_outportb>
  102b9f:	6a 02          	pushl  $0x2
  102ba1:	68 a1 00 00 00 	pushl  $0xa1
  102ba6:	e8 c1 04 00 00 	call   10306c <_outportb>
  102bab:	6a 01          	pushl  $0x1
  102bad:	6a 21          	pushl  $0x21
  102baf:	e8 b8 04 00 00 	call   10306c <_outportb>
  102bb4:	6a 01          	pushl  $0x1
  102bb6:	68 a1 00 00 00 	pushl  $0xa1
  102bbb:	e8 ac 04 00 00 	call   10306c <_outportb>
  102bc0:	83 c4 20       	addl   $0x20,%esp
  102bc3:	6a fc          	pushl  $0xfffffffc
  102bc5:	6a 21          	pushl  $0x21
  102bc7:	e8 a0 04 00 00 	call   10306c <_outportb>
  102bcc:	6a ff          	pushl  $0xffffffff
  102bce:	68 a1 00 00 00 	pushl  $0xa1
  102bd3:	e8 94 04 00 00 	call   10306c <_outportb>
  102bd8:	68 55 2b 10 00 	pushl  $0x102b55
  102bdd:	e8 5e 04 00 00 	call   103040 <_cprintf>
  102be2:	c9             	leave  
  102be3:	c3             	ret    

00102be4 <_timer_handler>:
  102be4:	55             	pushl  %ebp
  102be5:	89 e5          	movl   %esp,%ebp
  102be7:	fe 05 00 80 0b 	incb   0xb8000
  102bec:	00 
  102bed:	6a 20          	pushl  $0x20
  102bef:	6a 20          	pushl  $0x20
  102bf1:	e8 76 04 00 00 	call   10306c <_outportb>
  102bf6:	c9             	leave  
  102bf7:	c3             	ret    

00102bf8 <_sbrk>:
  102bf8:	55             	pushl  %ebp
  102bf9:	89 e5          	movl   %esp,%ebp
  102bfb:	57             	pushl  %edi
  102bfc:	56             	pushl  %esi
  102bfd:	53             	pushl  %ebx
  102bfe:	8b 7d 08       	movl   0x8(%ebp),%edi
  102c01:	89 f8          	movl   %edi,%eax
  102c03:	c1 e8 08       	shrl   $0x8,%eax
  102c06:	8d 70 01       	leal   0x1(%eax),%esi
  102c09:	89 f0          	movl   %esi,%eax
  102c0b:	03 05 1c 60 10 	addl   0x10601c,%eax
  102c10:	00 
  102c11:	3d ff 03 00 00 	cmpl   $0x3ff,%eax
  102c16:	7e 04          	jle    102c1c <L16>

00102c18 <L27>:
  102c18:	31 c0          	xorl   %eax,%eax
  102c1a:	eb 79          	jmp    102c95 <L25>

00102c1c <L16>:
  102c1c:	31 db          	xorl   %ebx,%ebx
  102c1e:	39 f3          	cmpl   %esi,%ebx
  102c20:	7d 29          	jnl    102c4b <L18>
  102c22:	89 f6          	movl   %esi,%esi

00102c24 <L20>:
  102c24:	e8 87 07 00 00 	call   1033b0 <_alloc_page>
  102c29:	89 c1          	movl   %eax,%ecx
  102c2b:	85 c9          	testl  %ecx,%ecx
  102c2d:	74 e9          	je     102c18 <L27>
  102c2f:	8b 15 1c 60 10 	movl   0x10601c,%edx
  102c34:	00 
  102c35:	a1 24 60 10 00 	movl   0x106024,%eax
  102c3a:	83 c9 07       	orl    $0x7,%ecx
  102c3d:	89 0c 90       	movl   %ecx,(%eax,%edx,4)
  102c40:	ff 05 1c 60 10 	incl   0x10601c
  102c45:	00 
  102c46:	43             	incl   %ebx
  102c47:	39 f3          	cmpl   %esi,%ebx
  102c49:	7c d9          	jl     102c24 <L20>

00102c4b <L18>:
  102c4b:	e8 04 08 00 00 	call   103454 <_load_cr3>
  102c50:	8b 15 04 60 10 	movl   0x106004,%edx
  102c55:	00 
  102c56:	39 15 00 60 10 	cmpl   %edx,0x106000
  102c5b:	00 
  102c5c:	75 05          	jne    102c63 <L24>
  102c5e:	83 3a 00       	cmpl   $0x0,(%edx)
  102c61:	74 11          	je     102c74 <L23>

00102c63 <L24>:
  102c63:	8b 02          	movl   (%edx),%eax
  102c65:	c1 e0 04       	shll   $0x4,%eax
  102c68:	8d 44 02 10    	leal   0x10(%edx,%eax,1),%eax
  102c6c:	a3 04 60 10 00 	movl   %eax,0x106004
  102c71:	89 42 0c       	movl   %eax,0xc(%edx)

00102c74 <L23>:
  102c74:	a1 04 60 10 00 	movl   0x106004,%eax
  102c79:	89 38          	movl   %edi,(%eax)
  102c7b:	8b 15 00 60 10 	movl   0x106000,%edx
  102c80:	00 
  102c81:	89 50 0c       	movl   %edx,0xc(%eax)
  102c84:	c7 40 08 01 00 	movl   $0x1,0x8(%eax)
  102c89:	00 00 
  102c8b:	c7 40 04 ad de 	movl   $0xdead,0x4(%eax)
  102c90:	00 00 
  102c92:	83 c0 10       	addl   $0x10,%eax

00102c95 <L25>:
  102c95:	8d 65 f4       	leal   0xfffffff4(%ebp),%esp
  102c98:	5b             	popl   %ebx
  102c99:	5e             	popl   %esi
  102c9a:	5f             	popl   %edi
  102c9b:	c9             	leave  
  102c9c:	c3             	ret    

00102c9d <.ef>:
  102c9d:	8d 76 00       	leal   0x0(%esi),%esi

00102ca0 <_malloc_fit>:
  102ca0:	55             	pushl  %ebp
  102ca1:	89 e5          	movl   %esp,%ebp
  102ca3:	8b 45 08       	movl   0x8(%ebp),%eax
  102ca6:	83 c0 10       	addl   $0x10,%eax
  102ca9:	c1 e8 04       	shrl   $0x4,%eax
  102cac:	8d 50 01       	leal   0x1(%eax),%edx
  102caf:	a1 00 60 10 00 	movl   0x106000,%eax
  102cb4:	a3 04 60 10 00 	movl   %eax,0x106004
  102cb9:	89 c1          	movl   %eax,%ecx
  102cbb:	90             	nop    

00102cbc <L29>:
  102cbc:	39 10          	cmpl   %edx,(%eax)
  102cbe:	72 1c          	jb     102cdc <L32>
  102cc0:	83 78 08 00    	cmpl   $0x0,0x8(%eax)
  102cc4:	75 16          	jne    102cdc <L32>
  102cc6:	c7 40 08 01 00 	movl   $0x1,0x8(%eax)
  102ccb:	00 00 
  102ccd:	c7 40 04 ad de 	movl   $0xdead,0x4(%eax)
  102cd2:	00 00 
  102cd4:	83 c0 10       	addl   $0x10,%eax
  102cd7:	eb 15          	jmp    102cee <L34>
  102cd9:	8d 76 00       	leal   0x0(%esi),%esi

00102cdc <L32>:
  102cdc:	a3 04 60 10 00 	movl   %eax,0x106004
  102ce1:	8b 40 0c       	movl   0xc(%eax),%eax
  102ce4:	39 c8          	cmpl   %ecx,%eax
  102ce6:	75 d4          	jne    102cbc <L29>
  102ce8:	52             	pushl  %edx
  102ce9:	e8 0a ff ff ff 	call   102bf8 <_sbrk>

00102cee <L34>:
  102cee:	c9             	leave  
  102cef:	c3             	ret    

00102cf0 <_malloc>:
  102cf0:	55             	pushl  %ebp
  102cf1:	89 e5          	movl   %esp,%ebp
  102cf3:	ff 75 08       	pushl  0x8(%ebp)
  102cf6:	e8 a5 ff ff ff 	call   102ca0 <_malloc_fit>
  102cfb:	c9             	leave  
  102cfc:	c3             	ret    

00102cfd <LC44>:
  102cfd:	42             	incl   %edx
  102cfe:	61             	popa   
  102cff:	64 20 70 6f    	andb   %dh,%fs:0x6f(%eax)
  102d03:	69 6e 74 65 72 	imull  $0x70207265,0x74(%esi),%ebp
  102d08:	20 70 
  102d0a:	61             	popa   
  102d0b:	73 73          	jae    102d80 <LC46+b>
  102d0d:	65 64 20 74 6f 	andb   %dh,%fs:%gs:0x20(%edi,%ebp,2)
  102d12:	20 
  102d13:	66 72 65       	jb     102d7b <LC46+6>
  102d16:	65 28 28       	subb   %ch,%gs:(%eax)
  102d19:	76 6f          	jbe    102d8a <LC46+15>
  102d1b:	69 64 2a 29 25 	imull  $0x58383025,0x29(%edx,%ebp,1),%esp
  102d20:	30 38 58 
  102d23:	29 0a          	subl   %ecx,(%edx)
  102d25:	00 89 f6 55 89 	addb   %cl,0xe58955f6(%ecx)
  102d2a:	e5 

00102d28 <_free>:
  102d28:	55             	pushl  %ebp
  102d29:	89 e5          	movl   %esp,%ebp
  102d2b:	8b 45 08       	movl   0x8(%ebp),%eax
  102d2e:	89 c2          	movl   %eax,%edx
  102d30:	83 c0 f0       	addl   $0xfffffff0,%eax
  102d33:	81 78 04 ad de 	cmpl   $0xdead,0x4(%eax)
  102d38:	00 00 
  102d3a:	74 10          	je     102d4c <L37>
  102d3c:	52             	pushl  %edx
  102d3d:	68 fd 2c 10 00 	pushl  $0x102cfd
  102d42:	e8 f9 02 00 00 	call   103040 <_cprintf>
  102d47:	eb 0a          	jmp    102d53 <L36>
  102d49:	8d 76 00       	leal   0x0(%esi),%esi

00102d4c <L37>:
  102d4c:	c7 40 08 00 00 	movl   $0x0,0x8(%eax)
  102d51:	00 00 

00102d53 <L36>:
  102d53:	c9             	leave  
  102d54:	c3             	ret    

00102d55 <LC45>:
  102d55:	2d 2d 2d 2d 2d 	subl   $0x2d2d2d2d,%eax
  102d5a:	2d 2d 2d 2d 2d 	subl   $0x2d2d2d2d,%eax
  102d5f:	2d 2d 2d 2d 2d 	subl   $0x2d2d2d2d,%eax
  102d64:	2d 2d 2d 2d 2d 	subl   $0x2d2d2d2d,%eax
  102d69:	2d 2d 2d 2d 2d 	subl   $0x2d2d2d2d,%eax
  102d6e:	2d 2d 2d 2d 2d 	subl   $0x2d2d2d2d,%eax
  102d73:	0a 00          	orb    (%eax),%al

00102d75 <LC46>:
  102d75:	5b             	popl   %ebx
  102d76:	25 30 38 58 5d 	andl   $0x5d583830,%eax
  102d7b:	20 2d 20 53 3a 	andb   %ch,0x253a5320
  102d80:	25 
  102d81:	69 20 20 41 3a 	imull  $0x253a4120,(%eax),%esp
  102d86:	25 
  102d87:	69 20 20 4e 3a 	imull  $0x253a4e20,(%eax),%esp
  102d8c:	25 
  102d8d:	30 38          	xorb   %bh,(%eax)
  102d8f:	58             	popl   %eax
  102d90:	0a 00          	orb    (%eax),%al
  102d92:	89 f6          	movl   %esi,%esi

00102d94 <_heap_walk>:
  102d94:	55             	pushl  %ebp
  102d95:	89 e5          	movl   %esp,%ebp
  102d97:	53             	pushl  %ebx
  102d98:	8b 1d 00 60 10 	movl   0x106000,%ebx
  102d9d:	00 
  102d9e:	68 55 2d 10 00 	pushl  $0x102d55
  102da3:	e8 98 02 00 00 	call   103040 <_cprintf>
  102da8:	83 c4 04       	addl   $0x4,%esp
  102dab:	90             	nop    

00102dac <L39>:
  102dac:	ff 73 0c       	pushl  0xc(%ebx)
  102daf:	ff 73 08       	pushl  0x8(%ebx)
  102db2:	ff 33          	pushl  (%ebx)
  102db4:	53             	pushl  %ebx
  102db5:	68 75 2d 10 00 	pushl  $0x102d75
  102dba:	e8 81 02 00 00 	call   103040 <_cprintf>
  102dbf:	8b 5b 0c       	movl   0xc(%ebx),%ebx
  102dc2:	83 c4 14       	addl   $0x14,%esp
  102dc5:	39 1d 00 60 10 	cmpl   %ebx,0x106000
  102dca:	00 
  102dcb:	75 df          	jne    102dac <L39>
  102dcd:	8b 5d fc       	movl   0xfffffffc(%ebp),%ebx
  102dd0:	c9             	leave  
  102dd1:	c3             	ret    

00102dd2 <LC47>:
  102dd2:	41             	incl   %ecx
  102dd3:	70 72          	jo     102e47 <_main+7>
  102dd5:	20 32          	andb   %dh,(%edx)
  102dd7:	39 20          	cmpl   %esp,(%eax)
  102dd9:	32 30          	xorb   (%eax),%dh
  102ddb:	30 34 00       	xorb   %dh,(%eax,%eax,1)

00102dde <LC48>:
  102dde:	59             	popl   %ecx
  102ddf:	61             	popa   
  102de0:	73 2d          	jae    102e0f <LC50+8>
  102de2:	4f             	decl   %edi
  102de3:	73 20          	jae    102e05 <LC49+e>
  102de5:	76 30          	jbe    102e17 <LC51>
  102de7:	2e 32 20       	xorb   %cs:(%eax),%ah
  102dea:	43             	incl   %ebx
  102deb:	6f             	outsl  %ds:(%esi),(%dx)
  102dec:	6d             	insl   (%dx),%es:(%edi)
  102ded:	70 69          	jo     102e58 <_main+18>
  102def:	6c             	insb   (%dx),%es:(%edi)
  102df0:	65 64 20 25 73 	andb   %ah,%fs:%gs:0x2e000a73
  102df5:	0a 00 2e 

00102df7 <LC49>:
  102df7:	2e 74 65       	je     102e5f <_main+1f>
  102dfa:	78 74          	js     102e70 <_main+30>
  102dfc:	20 3d 20 30 78 	andb   %bh,0x25783020
  102e01:	25 
  102e02:	30 38          	xorb   %bh,(%eax)
  102e04:	58             	popl   %eax
  102e05:	0a 00          	orb    (%eax),%al

00102e07 <LC50>:
  102e07:	2e 64 61       	popa   
  102e0a:	74 61          	je     102e6d <_main+2d>
  102e0c:	20 3d 20 30 78 	andb   %bh,0x25783020
  102e11:	25 
  102e12:	30 38          	xorb   %bh,(%eax)
  102e14:	58             	popl   %eax
  102e15:	0a 00          	orb    (%eax),%al

00102e17 <LC51>:
  102e17:	2e 62 73 73    	boundl %cs:0x73(%ebx),%esi
  102e1b:	20 20          	andb   %ah,(%eax)
  102e1d:	3d 20 30 78 25 	cmpl   $0x25783020,%eax
  102e22:	30 38          	xorb   %bh,(%eax)
  102e24:	58             	popl   %eax
  102e25:	0a 00          	orb    (%eax),%al

00102e27 <LC52>:
  102e27:	4b             	decl   %ebx
  102e28:	65 72 6e       	jb     102e99 <_main+59>
  102e2b:	65 6c          	insb   (%dx),%es:(%edi)
  102e2d:	20 73 69       	andb   %dh,0x69(%ebx)
  102e30:	7a 65          	jp     102e97 <_main+57>
  102e32:	3a 20          	cmpb   (%eax),%ah
  102e34:	25 69 4b 42 0a 	andl   $0xa424b69,%eax
	...

00102e3a <LC53>:
  102e3a:	25 30 38 58 0a 	andl   $0xa583830,%eax
	...

00102e40 <_main>:
  102e40:	55             	pushl  %ebp
  102e41:	89 e5          	movl   %esp,%ebp
  102e43:	83 ec 08       	subl   $0x8,%esp
  102e46:	53             	pushl  %ebx
  102e47:	68 08 60 10 00 	pushl  $0x106008
  102e4c:	e8 cf 00 00 00 	call   102f20 <_init_console>
  102e51:	68 d2 2d 10 00 	pushl  $0x102dd2
  102e56:	68 de 2d 10 00 	pushl  $0x102dde
  102e5b:	e8 e0 01 00 00 	call   103040 <_cprintf>
  102e60:	ff 35 18 40 10 	pushl  0x104018
  102e65:	00 
  102e66:	68 f7 2d 10 00 	pushl  $0x102df7
  102e6b:	e8 d0 01 00 00 	call   103040 <_cprintf>
  102e70:	ff 35 1c 40 10 	pushl  0x10401c
  102e75:	00 
  102e76:	68 07 2e 10 00 	pushl  $0x102e07
  102e7b:	e8 c0 01 00 00 	call   103040 <_cprintf>
  102e80:	ff 35 20 40 10 	pushl  0x104020
  102e85:	00 
  102e86:	68 17 2e 10 00 	pushl  $0x102e17
  102e8b:	e8 b0 01 00 00 	call   103040 <_cprintf>
  102e90:	83 c4 24       	addl   $0x24,%esp
  102e93:	a1 04 40 10 00 	movl   0x104004,%eax
  102e98:	c1 e8 0a       	shrl   $0xa,%eax
  102e9b:	50             	pushl  %eax
  102e9c:	68 27 2e 10 00 	pushl  $0x102e27
  102ea1:	e8 9a 01 00 00 	call   103040 <_cprintf>
  102ea6:	e8 a9 02 00 00 	call   103154 <_init_memory>
  102eab:	e8 ac fc ff ff 	call   102b5c <_init_8259s>
  102eb0:	c7 45 f8 8e 00 	movl   $0x8e,0xfffffff8(%ebp)
  102eb5:	00 00 
  102eb7:	8d 45 f8       	leal   0xfffffff8(%ebp),%eax
  102eba:	c7 40 04 e4 2b 	movl   $0x102be4,0x4(%eax)
  102ebf:	10 00 
  102ec1:	6a 20          	pushl  $0x20
  102ec3:	50             	pushl  %eax
  102ec4:	e8 98 d2 ff ff 	call   100161 <_setvect>
  102ec9:	e8 b2 01 00 00 	call   103080 <_enable>
  102ece:	c7 05 00 60 10 	movl   $0x3fc00000,0x106000
  102ed3:	00 00 00 c0 3f 
  102ed8:	b8 00 00 c0 3f 	movl   $0x3fc00000,%eax
  102edd:	c7 05 00 00 c0 	movl   $0x0,0x3fc00000
  102ee2:	3f 00 00 00 00 
  102ee7:	89 40 0c       	movl   %eax,0xc(%eax)
  102eea:	c7 40 08 00 00 	movl   $0x0,0x8(%eax)
  102eef:	00 00 
  102ef1:	68 a0 1f 00 00 	pushl  $0x1fa0
  102ef6:	e8 f5 fd ff ff 	call   102cf0 <_malloc>
  102efb:	31 db          	xorl   %ebx,%ebx
  102efd:	83 c4 14       	addl   $0x14,%esp

00102f00 <L47>:
  102f00:	a1 24 60 10 00 	movl   0x106024,%eax
  102f05:	ff 34 98       	pushl  (%eax,%ebx,4)
  102f08:	68 3a 2e 10 00 	pushl  $0x102e3a
  102f0d:	e8 2e 01 00 00 	call   103040 <_cprintf>
  102f12:	83 c4 08       	addl   $0x8,%esp
  102f15:	43             	incl   %ebx
  102f16:	83 fb 09       	cmpl   $0x9,%ebx
  102f19:	7e e5          	jle    102f00 <L47>
  102f1b:	90             	nop    

00102f1c <L49>:
  102f1c:	eb fe          	jmp    102f1c <L49>
  102f1e:	89 f6          	movl   %esi,%esi

00102f20 <_init_console>:
  102f20:	55             	pushl  %ebp
  102f21:	89 e5          	movl   %esp,%ebp
  102f23:	8b 45 08       	movl   0x8(%ebp),%eax
  102f26:	c7 00 00 00 00 	movl   $0x0,(%eax)
  102f2b:	00 
  102f2c:	c7 40 04 00 00 	movl   $0x0,0x4(%eax)
  102f31:	00 00 
  102f33:	c7 40 08 00 80 	movl   $0xb8000,0x8(%eax)
  102f38:	0b 00 
  102f3a:	c6 40 0c 07    	movb   $0x7,0xc(%eax)
  102f3e:	68 a0 0f 00 00 	pushl  $0xfa0
  102f43:	6a 00          	pushl  $0x0
  102f45:	68 00 80 0b 00 	pushl  $0xb8000
  102f4a:	e8 85 05 00 00 	call   1034d4 <_memset>
  102f4f:	c9             	leave  
  102f50:	c3             	ret    
  102f51:	8d 76 00       	leal   0x0(%esi),%esi

00102f54 <_scroll>:
  102f54:	55             	pushl  %ebp
  102f55:	89 e5          	movl   %esp,%ebp
  102f57:	68 00 0f 00 00 	pushl  $0xf00
  102f5c:	68 a0 80 0b 00 	pushl  $0xb80a0
  102f61:	68 00 80 0b 00 	pushl  $0xb8000
  102f66:	e8 8d 05 00 00 	call   1034f8 <_memcpy>
  102f6b:	68 a0 00 00 00 	pushl  $0xa0
  102f70:	6a 00          	pushl  $0x0
  102f72:	68 00 8f 0b 00 	pushl  $0xb8f00
  102f77:	e8 58 05 00 00 	call   1034d4 <_memset>
  102f7c:	c7 05 0c 60 10 	movl   $0x18,0x10600c
  102f81:	00 18 00 00 00 
  102f86:	c9             	leave  
  102f87:	c3             	ret    

00102f88 <_putch>:
  102f88:	55             	pushl  %ebp
  102f89:	89 e5          	movl   %esp,%ebp
  102f8b:	56             	pushl  %esi
  102f8c:	53             	pushl  %ebx
  102f8d:	8b 4d 08       	movl   0x8(%ebp),%ecx
  102f90:	bb 08 60 10 00 	movl   $0x106008,%ebx
  102f95:	83 f9 09       	cmpl   $0x9,%ecx
  102f98:	74 0a          	je     102fa4 <L5>
  102f9a:	83 f9 0a       	cmpl   $0xa,%ecx
  102f9d:	74 25          	je     102fc4 <L8>
  102f9f:	eb 3f          	jmp    102fe0 <L10>
  102fa1:	8d 76 00       	leal   0x0(%esi),%esi

00102fa4 <L5>:
  102fa4:	a1 08 60 10 00 	movl   0x106008,%eax
  102fa9:	83 c0 08       	addl   $0x8,%eax
  102fac:	a3 08 60 10 00 	movl   %eax,0x106008
  102fb1:	83 f8 4f       	cmpl   $0x4f,%eax
  102fb4:	7e 72          	jle    103028 <L4>
  102fb6:	c7 05 08 60 10 	movl   $0x0,0x106008
  102fbb:	00 00 00 00 00 
  102fc0:	eb 51          	jmp    103013 <L14>
  102fc2:	89 f6          	movl   %esi,%esi

00102fc4 <L8>:
  102fc4:	c7 05 08 60 10 	movl   $0x0,0x106008
  102fc9:	00 00 00 00 00 
  102fce:	8b 43 04       	movl   0x4(%ebx),%eax
  102fd1:	8d 70 01       	leal   0x1(%eax),%esi
  102fd4:	89 73 04       	movl   %esi,0x4(%ebx)
  102fd7:	89 f0          	movl   %esi,%eax
  102fd9:	83 f8 18       	cmpl   $0x18,%eax
  102fdc:	7e 4a          	jle    103028 <L4>
  102fde:	eb 43          	jmp    103023 <L15>

00102fe0 <L10>:
  102fe0:	8b 43 04       	movl   0x4(%ebx),%eax
  102fe3:	8d 04 80       	leal   (%eax,%eax,4),%eax
  102fe6:	c1 e0 04       	shll   $0x4,%eax
  102fe9:	03 03          	addl   (%ebx),%eax
  102feb:	8b 53 08       	movl   0x8(%ebx),%edx
  102fee:	88 0c 42       	movb   %cl,(%edx,%eax,2)
  102ff1:	8b 43 04       	movl   0x4(%ebx),%eax
  102ff4:	8d 04 80       	leal   (%eax,%eax,4),%eax
  102ff7:	c1 e0 04       	shll   $0x4,%eax
  102ffa:	03 03          	addl   (%ebx),%eax
  102ffc:	8b 4b 08       	movl   0x8(%ebx),%ecx
  102fff:	8a 53 0c       	movb   0xc(%ebx),%dl
  103002:	88 54 41 01    	movb   %dl,0x1(%ecx,%eax,2)
  103006:	ff 03          	incl   (%ebx)
  103008:	83 3b 4f       	cmpl   $0x4f,(%ebx)
  10300b:	7e 1b          	jle    103028 <L4>
  10300d:	c7 03 00 00 00 	movl   $0x0,(%ebx)
  103012:	00 

00103013 <L14>:
  103013:	8b 43 04       	movl   0x4(%ebx),%eax
  103016:	8d 70 01       	leal   0x1(%eax),%esi
  103019:	89 73 04       	movl   %esi,0x4(%ebx)
  10301c:	89 f0          	movl   %esi,%eax
  10301e:	83 f8 19       	cmpl   $0x19,%eax
  103021:	7e 05          	jle    103028 <L4>

00103023 <L15>:
  103023:	e8 2c ff ff ff 	call   102f54 <_scroll>

00103028 <L4>:
  103028:	8d 65 f8       	leal   0xfffffff8(%ebp),%esp
  10302b:	5b             	popl   %ebx
  10302c:	5e             	popl   %esi
  10302d:	c9             	leave  
  10302e:	c3             	ret    
  10302f:	90             	nop    

00103030 <_cprintf_help>:
  103030:	55             	pushl  %ebp
  103031:	89 e5          	movl   %esp,%ebp
  103033:	ff 75 08       	pushl  0x8(%ebp)
  103036:	e8 4d ff ff ff 	call   102f88 <_putch>
  10303b:	31 c0          	xorl   %eax,%eax
  10303d:	c9             	leave  
  10303e:	c3             	ret    
  10303f:	90             	nop    

00103040 <_cprintf>:
  103040:	55             	pushl  %ebp
  103041:	89 e5          	movl   %esp,%ebp
  103043:	8b 55 08       	movl   0x8(%ebp),%edx
  103046:	8d 45 0c       	leal   0xc(%ebp),%eax
  103049:	6a 00          	pushl  $0x0
  10304b:	68 30 30 10 00 	pushl  $0x103030
  103050:	50             	pushl  %eax
  103051:	52             	pushl  %edx
  103052:	e8 c9 04 00 00 	call   103520 <__printf>
  103057:	c9             	leave  
  103058:	c3             	ret    
  103059:	8d 76 00       	leal   0x0(%esi),%esi

0010305c <_inportb>:
  10305c:	55             	pushl  %ebp
  10305d:	89 e5          	movl   %esp,%ebp
  10305f:	8b 55 08       	movl   0x8(%ebp),%edx
  103062:	ec             	inb    (%dx),%al
  103063:	25 ff 00 00 00 	andl   $0xff,%eax
  103068:	c9             	leave  
  103069:	c3             	ret    
  10306a:	89 f6          	movl   %esi,%esi

0010306c <_outportb>:
  10306c:	55             	pushl  %ebp
  10306d:	89 e5          	movl   %esp,%ebp
  10306f:	8b 45 0c       	movl   0xc(%ebp),%eax
  103072:	8b 55 08       	movl   0x8(%ebp),%edx
  103075:	ee             	outb   %al,(%dx)
  103076:	c9             	leave  
  103077:	c3             	ret    

00103078 <_disable>:
  103078:	55             	pushl  %ebp
  103079:	89 e5          	movl   %esp,%ebp
  10307b:	9c             	pushf  
  10307c:	58             	popl   %eax
  10307d:	fa             	cli    
  10307e:	c9             	leave  
  10307f:	c3             	ret    

00103080 <_enable>:
  103080:	55             	pushl  %ebp
  103081:	89 e5          	movl   %esp,%ebp
  103083:	fb             	sti    
  103084:	c9             	leave  
  103085:	c3             	ret    
  103086:	89 f6          	movl   %esi,%esi

00103088 <LC0>:
  103088:	70 61          	jo     1030eb <LC3>
  10308a:	67 65 5f       	addr16 popl %edi
  10308d:	64 69 72 65 63 	imull  $0x726f7463,%fs:0x65(%edx),%esi
  103092:	74 6f 72 
  103095:	65 79 20       	jns    1030b8 <LC1+f>
  103098:	3d 20 34 4b 42 	cmpl   $0x424b3420,%eax
  10309d:	20 61 74       	andb   %ah,0x74(%ecx)
  1030a0:	20 30          	andb   %dh,(%eax)
  1030a2:	78 25          	js     1030c9 <LC1+20>
  1030a4:	30 38          	xorb   %bh,(%eax)
  1030a6:	58             	popl   %eax
  1030a7:	0a 00          	orb    (%eax),%al

001030a9 <LC1>:
  1030a9:	68 65 61 70 5f 	pushl  $0x5f706165
  1030ae:	70 61          	jo     103111 <LC4+10>
  1030b0:	67 65 5f       	addr16 popl %edi
  1030b3:	74 61          	je     103116 <LC4+15>
  1030b5:	62 6c 65 20    	boundl 0x20(%ebp,2),%ebp
  1030b9:	3d 20 34 4b 42 	cmpl   $0x424b3420,%eax
  1030be:	20 61 74       	andb   %ah,0x74(%ecx)
  1030c1:	20 30          	andb   %dh,(%eax)
  1030c3:	78 25          	js     1030ea <LC2+20>
  1030c5:	30 38          	xorb   %bh,(%eax)
  1030c7:	58             	popl   %eax
  1030c8:	0a 00          	orb    (%eax),%al

001030ca <LC2>:
  1030ca:	66 69 72 73 74 	imulw  $0x5f74,0x73(%edx),%si
  1030cf:	5f 
  1030d0:	68 65 61 70 5f 	pushl  $0x5f706165
  1030d5:	70 61          	jo     103138 <LC6+8>
  1030d7:	67 65 20 3d    	addr16 andb %bh,%gs:(di)
  1030db:	20 34 4b       	andb   %dh,(%ebx,%ecx,2)
  1030de:	42             	incl   %edx
  1030df:	20 61 74       	andb   %ah,0x74(%ecx)
  1030e2:	20 30          	andb   %dh,(%eax)
  1030e4:	78 25          	js     10310b <LC4+a>
  1030e6:	30 38          	xorb   %bh,(%eax)
  1030e8:	58             	popl   %eax
  1030e9:	0a 00          	orb    (%eax),%al

001030eb <LC3>:
  1030eb:	6d             	insl   (%dx),%es:(%edi)
  1030ec:	61             	popa   
  1030ed:	78 5f          	js     10314e <LC6+1e>
  1030ef:	70 61          	jo     103152 <LC6+22>
  1030f1:	67 65 5f       	addr16 popl %edi
  1030f4:	74 61          	je     103157 <_init_memory+3>
  1030f6:	62 6c 65 73    	boundl 0x73(%ebp,2),%ebp
  1030fa:	20 3d 20 25 69 	andb   %bh,0xa692520
  1030ff:	0a 
	...

00103101 <LC4>:
  103101:	6d             	insl   (%dx),%es:(%edi)
  103102:	61             	popa   
  103103:	78 5f          	js     103164 <_init_memory+10>
  103105:	70 61          	jo     103168 <_init_memory+14>
  103107:	67 65 73 20    	addr16 jae 10312b <LC5+14>
  10310b:	20 20          	andb   %ah,(%eax)
  10310d:	20 20          	andb   %ah,(%eax)
  10310f:	20 20          	andb   %ah,(%eax)
  103111:	3d 20 25 69 0a 	cmpl   $0xa692520,%eax
	...

00103117 <LC5>:
  103117:	6d             	insl   (%dx),%es:(%edi)
  103118:	61             	popa   
  103119:	78 5f          	js     10317a <_init_memory+26>
  10311b:	6d             	insl   (%dx),%es:(%edi)
  10311c:	65 6d          	insl   (%dx),%es:(%edi)
  10311e:	6f             	outsl  %ds:(%esi),(%dx)
  10311f:	72 79          	jb     10319a <L2+1d>
  103121:	20 20          	andb   %ah,(%eax)
  103123:	20 20          	andb   %ah,(%eax)
  103125:	20 20          	andb   %ah,(%eax)
  103127:	3d 20 25 69 20 	cmpl   $0x20692520,%eax
  10312c:	4b             	decl   %ebx
  10312d:	42             	incl   %edx
  10312e:	0a 00          	orb    (%eax),%al

00103130 <LC6>:
  103130:	64 6d          	insl   (%dx),%es:(%edi)
  103132:	61             	popa   
  103133:	5f             	popl   %edi
  103134:	62 75 66       	boundl 0x66(%ebp),%esi
  103137:	66 65 72 20    	jb     10315b <_init_memory+7>
  10313b:	20 20          	andb   %ah,(%eax)
  10313d:	20 20          	andb   %ah,(%eax)
  10313f:	20 3d 20 34 4b 	andb   %bh,0x424b3420
  103144:	42 
  103145:	20 61 74       	andb   %ah,0x74(%ecx)
  103148:	20 30          	andb   %dh,(%eax)
  10314a:	78 25          	js     103171 <_init_memory+1d>
  10314c:	30 38          	xorb   %bh,(%eax)
  10314e:	58             	popl   %eax
  10314f:	0a 00          	orb    (%eax),%al
  103151:	8d 76 00       	leal   0x0(%esi),%esi

00103154 <_init_memory>:
  103154:	55             	pushl  %ebp
  103155:	89 e5          	movl   %esp,%ebp
  103157:	83 ec 04       	subl   $0x4,%esp
  10315a:	57             	pushl  %edi
  10315b:	56             	pushl  %esi
  10315c:	53             	pushl  %ebx
  10315d:	a1 0c 40 10 00 	movl   0x10400c,%eax
  103162:	05 00 04 00 00 	addl   $0x400,%eax
  103167:	a3 28 60 10 00 	movl   %eax,0x106028
  10316c:	3d 00 00 08 00 	cmpl   $0x80000,%eax
  103171:	76 0a          	jbe    10317d <L2>
  103173:	c7 05 28 60 10 	movl   $0x80000,0x106028
  103178:	00 00 00 08 00 

0010317d <L2>:
  10317d:	a1 28 60 10 00 	movl   0x106028,%eax
  103182:	89 c1          	movl   %eax,%ecx
  103184:	c1 e9 02       	shrl   $0x2,%ecx
  103187:	89 0d 2c 60 10 	movl   %ecx,0x10602c
  10318c:	00 
  10318d:	c1 e8 0c       	shrl   $0xc,%eax
  103190:	89 45 fc       	movl   %eax,0xfffffffc(%ebp)
  103193:	6a 00          	pushl  $0x0
  103195:	e8 82 01 00 00 	call   10331c <_set_mbmp_bit>
  10319a:	be 01 00 00 00 	movl   $0x1,%esi
  10319f:	83 c4 04       	addl   $0x4,%esp
  1031a2:	39 75 fc       	cmpl   %esi,0xfffffffc(%ebp)
  1031a5:	72 10          	jb     1031b7 <L4>
  1031a7:	90             	nop    

001031a8 <L6>:
  1031a8:	56             	pushl  %esi
  1031a9:	e8 6e 01 00 00 	call   10331c <_set_mbmp_bit>
  1031ae:	83 c4 04       	addl   $0x4,%esp
  1031b1:	46             	incl   %esi
  1031b2:	39 75 fc       	cmpl   %esi,0xfffffffc(%ebp)
  1031b5:	73 f1          	jae    1031a8 <L6>

001031b7 <L4>:
  1031b7:	56             	pushl  %esi
  1031b8:	e8 5f 01 00 00 	call   10331c <_set_mbmp_bit>
  1031bd:	8d 5e 01       	leal   0x1(%esi),%ebx
  1031c0:	53             	pushl  %ebx
  1031c1:	e8 56 01 00 00 	call   10331c <_set_mbmp_bit>
  1031c6:	c7 05 18 60 10 	movl   $0x0,0x106018
  1031cb:	00 00 00 00 00 
  1031d0:	c1 e6 0c       	shll   $0xc,%esi
  1031d3:	89 35 20 60 10 	movl   %esi,0x106020
  1031d8:	00 
  1031d9:	c1 e3 0c       	shll   $0xc,%ebx
  1031dc:	89 1d 24 60 10 	movl   %ebx,0x106024
  1031e1:	00 
  1031e2:	31 f6          	xorl   %esi,%esi
  1031e4:	83 c4 08       	addl   $0x8,%esp
  1031e7:	eb 13          	jmp    1031fc <L22>
  1031e9:	8d 76 00       	leal   0x0(%esi),%esi

001031ec <L11>:
  1031ec:	8d 86 00 01 00 	leal   0x100(%esi),%eax
  1031f1:	00 
  1031f2:	50             	pushl  %eax
  1031f3:	e8 24 01 00 00 	call   10331c <_set_mbmp_bit>
  1031f8:	83 c4 04       	addl   $0x4,%esp
  1031fb:	46             	incl   %esi

001031fc <L22>:
  1031fc:	a1 04 40 10 00 	movl   0x104004,%eax
  103201:	c1 e8 0c       	shrl   $0xc,%eax
  103204:	39 c6          	cmpl   %eax,%esi
  103206:	72 e4          	jb     1031ec <L11>
  103208:	31 ff          	xorl   %edi,%edi
  10320a:	68 00 10 00 00 	pushl  $0x1000
  10320f:	57             	pushl  %edi
  103210:	57             	pushl  %edi
  103211:	e8 be 02 00 00 	call   1034d4 <_memset>
  103216:	89 fe          	movl   %edi,%esi
  103218:	83 c4 0c       	addl   $0xc,%esp
  10321b:	39 75 fc       	cmpl   %esi,0xfffffffc(%ebp)
  10321e:	76 14          	jbe    103234 <L14>

00103220 <L16>:
  103220:	8d 56 01       	leal   0x1(%esi),%edx
  103223:	89 d0          	movl   %edx,%eax
  103225:	c1 e0 0c       	shll   $0xc,%eax
  103228:	0c 07          	orb    $0x7,%al
  10322a:	89 04 b7       	movl   %eax,(%edi,%esi,4)
  10322d:	89 d6          	movl   %edx,%esi
  10322f:	39 75 fc       	cmpl   %esi,0xfffffffc(%ebp)
  103232:	77 ec          	ja     103220 <L16>

00103234 <L14>:
  103234:	bf 00 10 00 00 	movl   $0x1000,%edi
  103239:	31 db          	xorl   %ebx,%ebx
  10323b:	89 de          	movl   %ebx,%esi
  10323d:	8b 15 2c 60 10 	movl   0x10602c,%edx
  103242:	00 
  103243:	39 d3          	cmpl   %edx,%ebx
  103245:	73 1a          	jae    103261 <L19>
  103247:	89 f8          	movl   %edi,%eax
  103249:	8d 76 00       	leal   0x0(%esi),%esi

0010324c <L20>:
  10324c:	89 d9          	movl   %ebx,%ecx
  10324e:	83 c9 07       	orl    $0x7,%ecx
  103251:	89 08          	movl   %ecx,(%eax)
  103253:	81 c3 00 10 00 	addl   $0x1000,%ebx
  103258:	00 
  103259:	83 c0 04       	addl   $0x4,%eax
  10325c:	46             	incl   %esi
  10325d:	39 d6          	cmpl   %edx,%esi
  10325f:	72 eb          	jb     10324c <L20>

00103261 <L19>:
  103261:	68 00 10 00 00 	pushl  $0x1000
  103266:	6a 00          	pushl  $0x0
  103268:	ff 35 24 60 10 	pushl  0x106024
  10326d:	00 
  10326e:	e8 61 02 00 00 	call   1034d4 <_memset>
  103273:	a1 18 60 10 00 	movl   0x106018,%eax
  103278:	8b 0d 24 60 10 	movl   0x106024,%ecx
  10327d:	00 
  10327e:	83 c9 07       	orl    $0x7,%ecx
  103281:	89 88 fc 03 00 	movl   %ecx,0x3fc(%eax)
  103286:	00 
  103287:	e8 24 01 00 00 	call   1033b0 <_alloc_page>
  10328c:	89 c3          	movl   %eax,%ebx
  10328e:	a1 24 60 10 00 	movl   0x106024,%eax
  103293:	89 d9          	movl   %ebx,%ecx
  103295:	83 c9 07       	orl    $0x7,%ecx
  103298:	89 08          	movl   %ecx,(%eax)
  10329a:	c7 05 1c 60 10 	movl   $0x1,0x10601c
  10329f:	00 01 00 00 00 
  1032a4:	e8 c4 01 00 00 	call   10346d <_enable_paging_pm>
  1032a9:	ff 35 18 60 10 	pushl  0x106018
  1032ae:	00 
  1032af:	68 88 30 10 00 	pushl  $0x103088
  1032b4:	e8 87 fd ff ff 	call   103040 <_cprintf>
  1032b9:	ff 35 24 60 10 	pushl  0x106024
  1032be:	00 
  1032bf:	68 a9 30 10 00 	pushl  $0x1030a9
  1032c4:	e8 77 fd ff ff 	call   103040 <_cprintf>
  1032c9:	53             	pushl  %ebx
  1032ca:	68 ca 30 10 00 	pushl  $0x1030ca
  1032cf:	e8 6c fd ff ff 	call   103040 <_cprintf>
  1032d4:	83 c4 24       	addl   $0x24,%esp
  1032d7:	ff 75 fc       	pushl  0xfffffffc(%ebp)
  1032da:	68 eb 30 10 00 	pushl  $0x1030eb
  1032df:	e8 5c fd ff ff 	call   103040 <_cprintf>
  1032e4:	ff 35 2c 60 10 	pushl  0x10602c
  1032e9:	00 
  1032ea:	68 01 31 10 00 	pushl  $0x103101
  1032ef:	e8 4c fd ff ff 	call   103040 <_cprintf>
  1032f4:	ff 35 28 60 10 	pushl  0x106028
  1032f9:	00 
  1032fa:	68 17 31 10 00 	pushl  $0x103117
  1032ff:	e8 3c fd ff ff 	call   103040 <_cprintf>
  103304:	ff 35 20 60 10 	pushl  0x106020
  103309:	00 
  10330a:	68 30 31 10 00 	pushl  $0x103130
  10330f:	e8 2c fd ff ff 	call   103040 <_cprintf>
  103314:	8d 65 f0       	leal   0xfffffff0(%ebp),%esp
  103317:	5b             	popl   %ebx
  103318:	5e             	popl   %esi
  103319:	5f             	popl   %edi
  10331a:	c9             	leave  
  10331b:	c3             	ret    

0010331c <_set_mbmp_bit>:
  10331c:	55             	pushl  %ebp
  10331d:	89 e5          	movl   %esp,%ebp
  10331f:	8b 4d 08       	movl   0x8(%ebp),%ecx
  103322:	89 c8          	movl   %ecx,%eax
  103324:	85 c9          	testl  %ecx,%ecx
  103326:	7d 03          	jnl    10332b <L2>
  103328:	8d 41 07       	leal   0x7(%ecx),%eax

0010332b <L2>:
  10332b:	89 c2          	movl   %eax,%edx
  10332d:	c1 fa 03       	sarl   $0x3,%edx
  103330:	8d 04 d5 00 00 	leal   0x0(,%edx,8),%eax
  103335:	00 00 
  103337:	29 c1          	subl   %eax,%ecx
  103339:	89 c8          	movl   %ecx,%eax
  10333b:	0f b6 c8       	movzbl %al,%ecx
  10333e:	b8 01 00 00 00 	movl   $0x1,%eax
  103343:	d3 e0          	shll   %cl,%eax
  103345:	08 82 30 60 10 	orb    %al,0x106030(%edx)
  10334a:	00 
  10334b:	c9             	leave  
  10334c:	c3             	ret    
  10334d:	8d 76 00       	leal   0x0(%esi),%esi

00103350 <_clear_mbmp_bit>:
  103350:	55             	pushl  %ebp
  103351:	89 e5          	movl   %esp,%ebp
  103353:	8b 4d 08       	movl   0x8(%ebp),%ecx
  103356:	89 c8          	movl   %ecx,%eax
  103358:	85 c9          	testl  %ecx,%ecx
  10335a:	7d 03          	jnl    10335f <L6>
  10335c:	8d 41 07       	leal   0x7(%ecx),%eax

0010335f <L6>:
  10335f:	89 c2          	movl   %eax,%edx
  103361:	c1 fa 03       	sarl   $0x3,%edx
  103364:	8d 04 d5 00 00 	leal   0x0(,%edx,8),%eax
  103369:	00 00 
  10336b:	29 c1          	subl   %eax,%ecx
  10336d:	89 c8          	movl   %ecx,%eax
  10336f:	0f b6 c8       	movzbl %al,%ecx
  103372:	b8 fe ff ff ff 	movl   $0xfffffffe,%eax
  103377:	d3 c0          	roll   %cl,%eax
  103379:	20 82 30 60 10 	andb   %al,0x106030(%edx)
  10337e:	00 
  10337f:	c9             	leave  
  103380:	c3             	ret    
  103381:	8d 76 00       	leal   0x0(%esi),%esi

00103384 <_get_mbmp_bit>:
  103384:	55             	pushl  %ebp
  103385:	89 e5          	movl   %esp,%ebp
  103387:	8b 4d 08       	movl   0x8(%ebp),%ecx
  10338a:	89 c8          	movl   %ecx,%eax
  10338c:	85 c9          	testl  %ecx,%ecx
  10338e:	7d 03          	jnl    103393 <L10>
  103390:	8d 41 07       	leal   0x7(%ecx),%eax

00103393 <L10>:
  103393:	c1 f8 03       	sarl   $0x3,%eax
  103396:	0f b6 90 30 60 	movzbl 0x106030(%eax),%edx
  10339b:	10 00 
  10339d:	c1 e0 03       	shll   $0x3,%eax
  1033a0:	29 c1          	subl   %eax,%ecx
  1033a2:	89 c8          	movl   %ecx,%eax
  1033a4:	0f b6 c8       	movzbl %al,%ecx
  1033a7:	d3 fa          	sarl   %cl,%edx
  1033a9:	89 d0          	movl   %edx,%eax
  1033ab:	83 e0 01       	andl   $0x1,%eax
  1033ae:	c9             	leave  
  1033af:	c3             	ret    

001033b0 <_alloc_page>:
  1033b0:	55             	pushl  %ebp
  1033b1:	89 e5          	movl   %esp,%ebp
  1033b3:	56             	pushl  %esi
  1033b4:	53             	pushl  %ebx
  1033b5:	31 db          	xorl   %ebx,%ebx
  1033b7:	39 1d 2c 60 10 	cmpl   %ebx,0x10602c
  1033bc:	00 
  1033bd:	76 2c          	jbe    1033eb <L14>
  1033bf:	89 de          	movl   %ebx,%esi
  1033c1:	8d 76 00       	leal   0x0(%esi),%esi

001033c4 <L16>:
  1033c4:	53             	pushl  %ebx
  1033c5:	e8 ba ff ff ff 	call   103384 <_get_mbmp_bit>
  1033ca:	83 c4 04       	addl   $0x4,%esp
  1033cd:	85 c0          	testl  %eax,%eax
  1033cf:	75 0b          	jne    1033dc <L15>
  1033d1:	53             	pushl  %ebx
  1033d2:	e8 45 ff ff ff 	call   10331c <_set_mbmp_bit>
  1033d7:	89 f0          	movl   %esi,%eax
  1033d9:	eb 12          	jmp    1033ed <L19>
  1033db:	90             	nop    

001033dc <L15>:
  1033dc:	81 c6 00 10 00 	addl   $0x1000,%esi
  1033e1:	00 
  1033e2:	43             	incl   %ebx
  1033e3:	39 1d 2c 60 10 	cmpl   %ebx,0x10602c
  1033e8:	00 
  1033e9:	77 d9          	ja     1033c4 <L16>

001033eb <L14>:
  1033eb:	31 c0          	xorl   %eax,%eax

001033ed <L19>:
  1033ed:	8d 65 f8       	leal   0xfffffff8(%ebp),%esp
  1033f0:	5b             	popl   %ebx
  1033f1:	5e             	popl   %esi
  1033f2:	c9             	leave  
  1033f3:	c3             	ret    

001033f4 <LC0>:
  1033f4:	42             	incl   %edx
  1033f5:	61             	popa   
  1033f6:	64 20 70 6f    	andb   %dh,%fs:0x6f(%eax)
  1033fa:	69 6e 74 65 72 	imull  $0x70207265,0x74(%esi),%ebp
  1033ff:	20 70 
  103401:	61             	popa   
  103402:	73 73          	jae    103477 <_enable_paging_pm+a>
  103404:	65 64 20 74 6f 	andb   %dh,%fs:%gs:0x20(%edi,%ebp,2)
  103409:	20 
  10340a:	66 72 65       	jb     103472 <_enable_paging_pm+5>
  10340d:	65 5f          	popl   %edi
  10340f:	70 61          	jo     103472 <_enable_paging_pm+5>
  103411:	67 65 28 28    	addr16 subb %ch,%gs:(bx+si)
  103415:	76 6f          	jbe    103486 <_get_cr2+2>
  103417:	69 64 20 2a 29 	imull  $0x30252829,0x2a(%eax,1),%esp
  10341c:	28 25 30 
  10341f:	38 58 29       	cmpb   %bl,0x29(%eax)
  103422:	29 2e          	subl   %ebp,(%esi)
  103424:	0a 00          	orb    (%eax),%al
  103426:	89 f6          	movl   %esi,%esi

00103428 <_free_page>:
  103428:	55             	pushl  %ebp
  103429:	89 e5          	movl   %esp,%ebp
  10342b:	8b 45 08       	movl   0x8(%ebp),%eax
  10342e:	a9 ff 0f 00 00 	testl  $0xfff,%eax
  103433:	75 04          	jne    103439 <L22>
  103435:	85 c0          	testl  %eax,%eax
  103437:	75 0f          	jne    103448 <L21>

00103439 <L22>:
  103439:	50             	pushl  %eax
  10343a:	68 f4 33 10 00 	pushl  $0x1033f4
  10343f:	e8 fc fb ff ff 	call   103040 <_cprintf>
  103444:	eb 0b          	jmp    103451 <L20>
  103446:	89 f6          	movl   %esi,%esi

00103448 <L21>:
  103448:	c1 e8 0c       	shrl   $0xc,%eax
  10344b:	50             	pushl  %eax
  10344c:	e8 ff fe ff ff 	call   103350 <_clear_mbmp_bit>

00103451 <L20>:
  103451:	c9             	leave  
  103452:	c3             	ret    
  103453:	90             	nop    

00103454 <_load_cr3>:
  103454:	31 c0          	xorl   %eax,%eax
  103456:	0f 22 d8       	movl   %eax,%cr3
  103459:	eb 00          	jmp    10345b <L1>

0010345b <L1>:
  10345b:	c3             	ret    

0010345c <_enable_paging>:
  10345c:	0f 20 c0       	movl   %cr0,%eax
  10345f:	0d 01 00 00 80 	orl    $0x80000001,%eax
  103464:	0f 22 c0       	movl   %eax,%cr0
  103467:	e9 00 00 00 00 	jmp    10346c <L2>

0010346c <L2>:
  10346c:	c3             	ret    

0010346d <_enable_paging_pm>:
  10346d:	31 c0          	xorl   %eax,%eax
  10346f:	0f 22 d8       	movl   %eax,%cr3
  103472:	0f 20 c0       	movl   %cr0,%eax
  103475:	0d 00 00 00 80 	orl    $0x80000000,%eax
  10347a:	0f 22 c0       	movl   %eax,%cr0
  10347d:	eb 00          	jmp    10347f <L3>

0010347f <L3>:
  10347f:	c3             	ret    

00103480 <_get_cr0>:
  103480:	0f 20 c0       	movl   %cr0,%eax
  103483:	c3             	ret    

00103484 <_get_cr2>:
  103484:	0f 20 d0       	movl   %cr2,%eax
  103487:	c3             	ret    

00103488 <_get_cr3>:
  103488:	0f 20 d8       	movl   %cr3,%eax
  10348b:	c3             	ret    

0010348c <_strlen>:
  10348c:	55             	pushl  %ebp
  10348d:	89 e5          	movl   %esp,%ebp
  10348f:	8b 55 08       	movl   0x8(%ebp),%edx
  103492:	31 c0          	xorl   %eax,%eax
  103494:	80 3a 00       	cmpb   $0x0,(%edx)
  103497:	74 0a          	je     1034a3 <L3>
  103499:	8d 76 00       	leal   0x0(%esi),%esi

0010349c <L5>:
  10349c:	40             	incl   %eax
  10349d:	42             	incl   %edx
  10349e:	80 3a 00       	cmpb   $0x0,(%edx)
  1034a1:	75 f9          	jne    10349c <L5>

001034a3 <L3>:
  1034a3:	c9             	leave  
  1034a4:	c3             	ret    
  1034a5:	8d 76 00       	leal   0x0(%esi),%esi

001034a8 <_strcpy>:
  1034a8:	55             	pushl  %ebp
  1034a9:	89 e5          	movl   %esp,%ebp
  1034ab:	53             	pushl  %ebx
  1034ac:	8b 4d 0c       	movl   0xc(%ebp),%ecx
  1034af:	8b 5d 08       	movl   0x8(%ebp),%ebx
  1034b2:	8a 01          	movb   (%ecx),%al
  1034b4:	88 03          	movb   %al,(%ebx)
  1034b6:	41             	incl   %ecx
  1034b7:	8d 53 01       	leal   0x1(%ebx),%edx
  1034ba:	84 c0          	testb  %al,%al
  1034bc:	74 0c          	je     1034ca <L9>
  1034be:	89 f6          	movl   %esi,%esi

001034c0 <L8>:
  1034c0:	8a 01          	movb   (%ecx),%al
  1034c2:	88 02          	movb   %al,(%edx)
  1034c4:	41             	incl   %ecx
  1034c5:	42             	incl   %edx
  1034c6:	84 c0          	testb  %al,%al
  1034c8:	75 f6          	jne    1034c0 <L8>

001034ca <L9>:
  1034ca:	89 d8          	movl   %ebx,%eax
  1034cc:	8b 5d fc       	movl   0xfffffffc(%ebp),%ebx
  1034cf:	c9             	leave  
  1034d0:	c3             	ret    
  1034d1:	8d 76 00       	leal   0x0(%esi),%esi

001034d4 <_memset>:
  1034d4:	55             	pushl  %ebp
  1034d5:	89 e5          	movl   %esp,%ebp
  1034d7:	53             	pushl  %ebx
  1034d8:	8b 4d 08       	movl   0x8(%ebp),%ecx
  1034db:	8b 5d 0c       	movl   0xc(%ebp),%ebx
  1034de:	8b 55 10       	movl   0x10(%ebp),%edx
  1034e1:	89 c8          	movl   %ecx,%eax
  1034e3:	85 d2          	testl  %edx,%edx
  1034e5:	74 07          	je     1034ee <L14>
  1034e7:	90             	nop    

001034e8 <L15>:
  1034e8:	88 18          	movb   %bl,(%eax)
  1034ea:	40             	incl   %eax
  1034eb:	4a             	decl   %edx
  1034ec:	75 fa          	jne    1034e8 <L15>

001034ee <L14>:
  1034ee:	89 c8          	movl   %ecx,%eax
  1034f0:	8b 5d fc       	movl   0xfffffffc(%ebp),%ebx
  1034f3:	c9             	leave  
  1034f4:	c3             	ret    
  1034f5:	8d 76 00       	leal   0x0(%esi),%esi

001034f8 <_memcpy>:
  1034f8:	55             	pushl  %ebp
  1034f9:	89 e5          	movl   %esp,%ebp
  1034fb:	56             	pushl  %esi
  1034fc:	53             	pushl  %ebx
  1034fd:	8b 55 10       	movl   0x10(%ebp),%edx
  103500:	8b 75 08       	movl   0x8(%ebp),%esi
  103503:	8b 5d 0c       	movl   0xc(%ebp),%ebx
  103506:	89 f1          	movl   %esi,%ecx
  103508:	85 d2          	testl  %edx,%edx
  10350a:	74 09          	je     103515 <L19>

0010350c <L21>:
  10350c:	8a 03          	movb   (%ebx),%al
  10350e:	88 01          	movb   %al,(%ecx)
  103510:	43             	incl   %ebx
  103511:	41             	incl   %ecx
  103512:	4a             	decl   %edx
  103513:	75 f7          	jne    10350c <L21>

00103515 <L19>:
  103515:	89 f0          	movl   %esi,%eax
  103517:	8d 65 f8       	leal   0xfffffff8(%ebp),%esp
  10351a:	5b             	popl   %ebx
  10351b:	5e             	popl   %esi
  10351c:	c9             	leave  
  10351d:	c3             	ret    
  10351e:	89 f6          	movl   %esi,%esi

00103520 <__printf>:
  103520:	55             	pushl  %ebp
  103521:	89 e5          	movl   %esp,%ebp
  103523:	83 ec 28       	subl   $0x28,%esp
  103526:	57             	pushl  %edi
  103527:	56             	pushl  %esi
  103528:	53             	pushl  %ebx
  103529:	8b 45 14       	movl   0x14(%ebp),%eax
  10352c:	c7 45 ec 00 00 	movl   $0x0,0xffffffec(%ebp)
  103531:	00 00 
  103533:	8b 4d ec       	movl   0xffffffec(%ebp),%ecx
  103536:	89 4d e8       	movl   %ecx,0xffffffe8(%ebp)
  103539:	89 cb          	movl   %ecx,%ebx
  10353b:	89 ce          	movl   %ecx,%esi
  10353d:	8b 45 08       	movl   0x8(%ebp),%eax
  103540:	80 38 00       	cmpb   $0x0,(%eax)
  103543:	0f 84 46 03 00 	je     10388f <L3>
  103548:	00 
  103549:	8d 4d 14       	leal   0x14(%ebp),%ecx
  10354c:	89 4d e0       	movl   %ecx,0xffffffe0(%ebp)
  10354f:	90             	nop    

00103550 <L5>:
  103550:	83 fe 04       	cmpl   $0x4,%esi
  103553:	0f 87 20 03 00 	ja     103879 <L78>
  103558:	00 
  103559:	ff 24 b5 60 35 	jmp    *0x103560(,%esi,4)
  10355e:	10 00 

00103560 <L79>:
  103560:	74 35          	je     103597 <L8+3>
  103562:	10 00          	adcb   %al,(%eax)
  103564:	98             	cwtl   
  103565:	35 10 00 e4 35 	xorl   $0x35e40010,%eax
  10356a:	10 00          	adcb   %al,(%eax)
  10356c:	09 36          	orl    %esi,(%esi)
  10356e:	10 00          	adcb   %al,(%eax)
  103570:	44             	incl   %esp
  103571:	36 10 00       	adcb   %al,%ss:(%eax)

00103574 <L7>:
  103574:	8b 45 08       	movl   0x8(%ebp),%eax
  103577:	80 38 25       	cmpb   $0x25,(%eax)
  10357a:	74 18          	je     103594 <L8>
  10357c:	ff 75 e0       	pushl  0xffffffe0(%ebp)
  10357f:	0f be 08       	movsbl (%eax),%ecx
  103582:	51             	pushl  %ecx
  103583:	8b 45 10       	movl   0x10(%ebp),%eax
  103586:	ff d0          	call   *%eax
  103588:	ff 45 ec       	incl   0xffffffec(%ebp)
  10358b:	83 c4 08       	addl   $0x8,%esp
  10358e:	e9 ed 02 00 00 	jmp    103880 <L4>
  103593:	90             	nop    

00103594 <L8>:
  103594:	46             	incl   %esi
  103595:	ff 45 08       	incl   0x8(%ebp)

00103598 <L9>:
  103598:	8b 4d 08       	movl   0x8(%ebp),%ecx
  10359b:	8a 11          	movb   (%ecx),%dl
  10359d:	80 fa 25       	cmpb   $0x25,%dl
  1035a0:	75 1e          	jne    1035c0 <L10>
  1035a2:	ff 75 e0       	pushl  0xffffffe0(%ebp)
  1035a5:	6a 25          	pushl  $0x25
  1035a7:	8b 45 10       	movl   0x10(%ebp),%eax
  1035aa:	ff d0          	call   *%eax
  1035ac:	ff 45 ec       	incl   0xffffffec(%ebp)
  1035af:	31 db          	xorl   %ebx,%ebx
  1035b1:	89 5d e8       	movl   %ebx,0xffffffe8(%ebp)
  1035b4:	89 de          	movl   %ebx,%esi
  1035b6:	83 c4 08       	addl   $0x8,%esp
  1035b9:	e9 c2 02 00 00 	jmp    103880 <L4>
  1035be:	89 f6          	movl   %esi,%esi

001035c0 <L10>:
  1035c0:	80 fa 2d       	cmpb   $0x2d,%dl
  1035c3:	75 13          	jne    1035d8 <L11>
  1035c5:	f6 c3 01       	testb  $0x1,%bl
  1035c8:	0f 85 ab 02 00 	jne    103879 <L78>
  1035cd:	00 
  1035ce:	83 cb 01       	orl    $0x1,%ebx
  1035d1:	e9 aa 02 00 00 	jmp    103880 <L4>
  1035d6:	89 f6          	movl   %esi,%esi

001035d8 <L11>:
  1035d8:	46             	incl   %esi
  1035d9:	80 fa 30       	cmpb   $0x30,%dl
  1035dc:	75 06          	jne    1035e4 <L15>
  1035de:	83 cb 40       	orl    $0x40,%ebx
  1035e1:	ff 45 08       	incl   0x8(%ebp)

001035e4 <L15>:
  1035e4:	8b 45 08       	movl   0x8(%ebp),%eax
  1035e7:	8a 08          	movb   (%eax),%cl
  1035e9:	80 c1 d0       	addb   $0xd0,%cl
  1035ec:	80 f9 09       	cmpb   $0x9,%cl
  1035ef:	77 17          	ja     103608 <L16>
  1035f1:	8b 4d e8       	movl   0xffffffe8(%ebp),%ecx
  1035f4:	8d 14 89       	leal   (%ecx,%ecx,4),%edx
  1035f7:	0f be 00       	movsbl (%eax),%eax
  1035fa:	8d 54 50 d0    	leal   0xffffffd0(%eax,%edx,2),%edx
  1035fe:	89 55 e8       	movl   %edx,0xffffffe8(%ebp)
  103601:	e9 7a 02 00 00 	jmp    103880 <L4>
  103606:	89 f6          	movl   %esi,%esi

00103608 <L16>:
  103608:	46             	incl   %esi

00103609 <L17>:
  103609:	8b 4d 08       	movl   0x8(%ebp),%ecx
  10360c:	8a 11          	movb   (%ecx),%dl
  10360e:	80 fa 46       	cmpb   $0x46,%dl
  103611:	75 09          	jne    10361c <L18>
  103613:	80 cb 80       	orb    $0x80,%bl
  103616:	e9 65 02 00 00 	jmp    103880 <L4>
  10361b:	90             	nop    

0010361c <L18>:
  10361c:	80 fa 4e       	cmpb   $0x4e,%dl
  10361f:	0f 84 5b 02 00 	je     103880 <L4>
  103624:	00 
  103625:	80 fa 6c       	cmpb   $0x6c,%dl
  103628:	75 0a          	jne    103634 <L20>
  10362a:	83 cb 08       	orl    $0x8,%ebx
  10362d:	e9 4e 02 00 00 	jmp    103880 <L4>
  103632:	89 f6          	movl   %esi,%esi

00103634 <L20>:
  103634:	80 fa 68       	cmpb   $0x68,%dl
  103637:	75 0b          	jne    103644 <L22>
  103639:	83 cb 10       	orl    $0x10,%ebx
  10363c:	e9 3f 02 00 00 	jmp    103880 <L4>
  103641:	8d 76 00       	leal   0x0(%esi),%esi

00103644 <L22>:
  103644:	8d 75 ff       	leal   0xffffffff(%ebp),%esi
  103647:	c6 45 ff 00    	movb   $0x0,0xffffffff(%ebp)
  10364b:	8b 4d 08       	movl   0x8(%ebp),%ecx
  10364e:	8a 01          	movb   (%ecx),%al
  103650:	04 a8          	addb   $0xa8,%al
  103652:	0f be d0       	movsbl %al,%edx
  103655:	83 fa 20       	cmpl   $0x20,%edx
  103658:	0f 87 1b 02 00 	ja     103879 <L78>
  10365d:	00 
  10365e:	ff 24 95 68 36 	jmp    *0x103668(,%edx,4)
  103663:	10 00 
  103665:	8d 76 00       	leal   0x0(%esi),%esi

00103668 <L77>:
  103668:	ec             	inb    (%dx),%al
  103669:	36 10 00       	adcb   %al,%ss:(%eax)
  10366c:	79 38          	jns    1036a6 <L77+3e>
  10366e:	10 00          	adcb   %al,(%eax)
  103670:	79 38          	jns    1036aa <L77+42>
  103672:	10 00          	adcb   %al,(%eax)
  103674:	79 38          	jns    1036ae <L77+46>
  103676:	10 00          	adcb   %al,(%eax)
  103678:	79 38          	jns    1036b2 <L77+4a>
  10367a:	10 00          	adcb   %al,(%eax)
  10367c:	79 38          	jns    1036b6 <L77+4e>
  10367e:	10 00          	adcb   %al,(%eax)
  103680:	79 38          	jns    1036ba <L77+52>
  103682:	10 00          	adcb   %al,(%eax)
  103684:	79 38          	jns    1036be <L77+56>
  103686:	10 00          	adcb   %al,(%eax)
  103688:	79 38          	jns    1036c2 <L77+5a>
  10368a:	10 00          	adcb   %al,(%eax)
  10368c:	79 38          	jns    1036c6 <L77+5e>
  10368e:	10 00          	adcb   %al,(%eax)
  103690:	79 38          	jns    1036ca <L77+62>
  103692:	10 00          	adcb   %al,(%eax)
  103694:	ac             	lodsb  %ds:(%esi),%al
  103695:	37             	aaa    
  103696:	10 00          	adcb   %al,(%eax)
  103698:	f8             	clc    
  103699:	36 10 00       	adcb   %al,%ss:(%eax)
  10369c:	79 38          	jns    1036d6 <L77+6e>
  10369e:	10 00          	adcb   %al,(%eax)
  1036a0:	79 38          	jns    1036da <L77+72>
  1036a2:	10 00          	adcb   %al,(%eax)
  1036a4:	79 38          	jns    1036de <L77+76>
  1036a6:	10 00          	adcb   %al,(%eax)
  1036a8:	79 38          	jns    1036e2 <L77+7a>
  1036aa:	10 00          	adcb   %al,(%eax)
  1036ac:	f8             	clc    
  1036ad:	36 10 00       	adcb   %al,%ss:(%eax)
  1036b0:	79 38          	jns    1036ea <L77+82>
  1036b2:	10 00          	adcb   %al,(%eax)
  1036b4:	79 38          	jns    1036ee <L24+2>
  1036b6:	10 00          	adcb   %al,(%eax)
  1036b8:	79 38          	jns    1036f2 <L27+3>
  1036ba:	10 00          	adcb   %al,(%eax)
  1036bc:	79 38          	jns    1036f6 <L27+7>
  1036be:	10 00          	adcb   %al,(%eax)
  1036c0:	ef             	outl   %eax,(%dx)
  1036c1:	36 10 00       	adcb   %al,%ss:(%eax)
  1036c4:	04 37          	addb   $0x37,%al
  1036c6:	10 00          	adcb   %al,(%eax)
  1036c8:	ef             	outl   %eax,(%dx)
  1036c9:	36 10 00       	adcb   %al,%ss:(%eax)
  1036cc:	79 38          	jns    103706 <L32+2>
  1036ce:	10 00          	adcb   %al,(%eax)
  1036d0:	79 38          	jns    10370a <L28+1>
  1036d2:	10 00          	adcb   %al,(%eax)
  1036d4:	c4 37          	lesl   (%edi),%esi
  1036d6:	10 00          	adcb   %al,(%eax)
  1036d8:	79 38          	jns    103712 <L28+9>
  1036da:	10 00          	adcb   %al,(%eax)
  1036dc:	fb             	sti    
  1036dd:	36 10 00       	adcb   %al,%ss:(%eax)
  1036e0:	79 38          	jns    10371a <L28+11>
  1036e2:	10 00          	adcb   %al,(%eax)
  1036e4:	79 38          	jns    10371e <L28+15>
  1036e6:	10 00          	adcb   %al,(%eax)
  1036e8:	ef             	outl   %eax,(%dx)
  1036e9:	36 10 00       	adcb   %al,%ss:(%eax)

001036ec <L24>:
  1036ec:	83 cb 02       	orl    $0x2,%ebx

001036ef <L27>:
  1036ef:	bf 10 00 00 00 	movl   $0x10,%edi
  1036f4:	eb 13          	jmp    103709 <L28>
  1036f6:	89 f6          	movl   %esi,%esi

001036f8 <L30>:
  1036f8:	83 cb 04       	orl    $0x4,%ebx

001036fb <L31>:
  1036fb:	bf 0a 00 00 00 	movl   $0xa,%edi
  103700:	eb 07          	jmp    103709 <L28>
  103702:	89 f6          	movl   %esi,%esi

00103704 <L32>:
  103704:	bf 08 00 00 00 	movl   $0x8,%edi

00103709 <L28>:
  103709:	f6 c3 08       	testb  $0x8,%bl
  10370c:	75 2f          	jne    10373d <L81>
  10370e:	f6 c3 10       	testb  $0x10,%bl
  103711:	74 25          	je     103738 <L35>
  103713:	f6 c3 04       	testb  $0x4,%bl
  103716:	74 10          	je     103728 <L36>
  103718:	83 45 0c 04    	addl   $0x4,0xc(%ebp)
  10371c:	8b 4d 0c       	movl   0xc(%ebp),%ecx
  10371f:	0f bf 49 fc    	movswl 0xfffffffc(%ecx),%ecx
  103723:	eb 31          	jmp    103756 <L82>
  103725:	8d 76 00       	leal   0x0(%esi),%esi

00103728 <L36>:
  103728:	83 45 0c 04    	addl   $0x4,0xc(%ebp)
  10372c:	8b 45 0c       	movl   0xc(%ebp),%eax
  10372f:	0f b7 48 fc    	movzwl 0xfffffffc(%eax),%ecx
  103733:	eb 21          	jmp    103756 <L82>
  103735:	8d 76 00       	leal   0x0(%esi),%esi

00103738 <L35>:
  103738:	f6 c3 04       	testb  $0x4,%bl
  10373b:	74 0f          	je     10374c <L39>

0010373d <L81>:
  10373d:	83 45 0c 04    	addl   $0x4,0xc(%ebp)
  103741:	8b 45 0c       	movl   0xc(%ebp),%eax
  103744:	8b 40 fc       	movl   0xfffffffc(%eax),%eax
  103747:	89 45 dc       	movl   %eax,0xffffffdc(%ebp)
  10374a:	eb 0d          	jmp    103759 <L34>

0010374c <L39>:
  10374c:	83 45 0c 04    	addl   $0x4,0xc(%ebp)
  103750:	8b 4d 0c       	movl   0xc(%ebp),%ecx
  103753:	8b 49 fc       	movl   0xfffffffc(%ecx),%ecx

00103756 <L82>:
  103756:	89 4d dc       	movl   %ecx,0xffffffdc(%ebp)

00103759 <L34>:
  103759:	f6 c3 04       	testb  $0x4,%bl
  10375c:	74 0c          	je     10376a <L41>
  10375e:	83 7d dc 00    	cmpl   $0x0,0xffffffdc(%ebp)
  103762:	7d 06          	jnl    10376a <L41>
  103764:	83 cb 20       	orl    $0x20,%ebx
  103767:	f7 5d dc       	negl   0xffffffdc(%ebp)

0010376a <L41>:
  10376a:	89 d8          	movl   %ebx,%eax
  10376c:	83 e0 02       	andl   $0x2,%eax
  10376f:	89 45 e4       	movl   %eax,0xffffffe4(%ebp)
  103772:	89 f6          	movl   %esi,%esi

00103774 <L43>:
  103774:	8b 45 dc       	movl   0xffffffdc(%ebp),%eax
  103777:	31 d2          	xorl   %edx,%edx
  103779:	f7 f7          	divl   %edi,%eax
  10377b:	4e             	decl   %esi
  10377c:	83 fa 09       	cmpl   $0x9,%edx
  10377f:	77 07          	ja     103788 <L46>
  103781:	80 c2 30       	addb   $0x30,%dl
  103784:	eb 11          	jmp    103797 <L83>
  103786:	89 f6          	movl   %esi,%esi

00103788 <L46>:
  103788:	83 7d e4 00    	cmpl   $0x0,0xffffffe4(%ebp)
  10378c:	74 06          	je     103794 <L48>
  10378e:	80 c2 37       	addb   $0x37,%dl
  103791:	eb 04          	jmp    103797 <L83>
  103793:	90             	nop    

00103794 <L48>:
  103794:	80 c2 57       	addb   $0x57,%dl

00103797 <L83>:
  103797:	88 16          	movb   %dl,(%esi)
  103799:	8b 45 dc       	movl   0xffffffdc(%ebp),%eax
  10379c:	31 d2          	xorl   %edx,%edx
  10379e:	f7 f7          	divl   %edi,%eax
  1037a0:	89 45 dc       	movl   %eax,0xffffffdc(%ebp)
  1037a3:	85 c0          	testl  %eax,%eax
  1037a5:	75 cd          	jne    103774 <L43>
  1037a7:	eb 28          	jmp    1037d1 <L51>
  1037a9:	8d 76 00       	leal   0x0(%esi),%esi

001037ac <L52>:
  1037ac:	83 e3 bf       	andl   $0xffffffbf,%ebx
  1037af:	4e             	decl   %esi
  1037b0:	83 45 0c 04    	addl   $0x4,0xc(%ebp)
  1037b4:	8b 4d 0c       	movl   0xc(%ebp),%ecx
  1037b7:	8a 49 fc       	movb   0xfffffffc(%ecx),%cl
  1037ba:	88 0e          	movb   %cl,(%esi)
  1037bc:	bf 01 00 00 00 	movl   $0x1,%edi
  1037c1:	eb 39          	jmp    1037fc <L53>
  1037c3:	90             	nop    

001037c4 <L54>:
  1037c4:	83 e3 bf       	andl   $0xffffffbf,%ebx
  1037c7:	83 45 0c 04    	addl   $0x4,0xc(%ebp)
  1037cb:	8b 45 0c       	movl   0xc(%ebp),%eax
  1037ce:	8b 70 fc       	movl   0xfffffffc(%eax),%esi

001037d1 <L51>:
  1037d1:	56             	pushl  %esi
  1037d2:	e8 b5 fc ff ff 	call   10348c <_strlen>
  1037d7:	89 c7          	movl   %eax,%edi
  1037d9:	83 c4 04       	addl   $0x4,%esp
  1037dc:	f6 c3 20       	testb  $0x20,%bl
  1037df:	74 01          	je     1037e2 <L55>
  1037e1:	47             	incl   %edi

001037e2 <L55>:
  1037e2:	89 d8          	movl   %ebx,%eax
  1037e4:	83 e0 60       	andl   $0x60,%eax
  1037e7:	83 f8 60       	cmpl   $0x60,%eax
  1037ea:	75 10          	jne    1037fc <L53>
  1037ec:	ff 75 e0       	pushl  0xffffffe0(%ebp)
  1037ef:	6a 2d          	pushl  $0x2d
  1037f1:	8b 4d 10       	movl   0x10(%ebp),%ecx
  1037f4:	ff d1          	call   *%ecx
  1037f6:	ff 45 ec       	incl   0xffffffec(%ebp)
  1037f9:	83 c4 08       	addl   $0x8,%esp

001037fc <L53>:
  1037fc:	f6 c3 01       	testb  $0x1,%bl
  1037ff:	75 2d          	jne    10382e <L57>
  103801:	39 7d e8       	cmpl   %edi,0xffffffe8(%ebp)
  103804:	76 28          	jbe    10382e <L57>
  103806:	89 f6          	movl   %esi,%esi

00103808 <L60>:
  103808:	ff 75 e0       	pushl  0xffffffe0(%ebp)
  10380b:	ba 20 00 00 00 	movl   $0x20,%edx
  103810:	f6 c3 40       	testb  $0x40,%bl
  103813:	74 05          	je     10381a <L61>
  103815:	ba 30 00 00 00 	movl   $0x30,%edx

0010381a <L61>:
  10381a:	52             	pushl  %edx
  10381b:	8b 45 10       	movl   0x10(%ebp),%eax
  10381e:	ff d0          	call   *%eax
  103820:	ff 45 ec       	incl   0xffffffec(%ebp)
  103823:	ff 4d e8       	decl   0xffffffe8(%ebp)
  103826:	83 c4 08       	addl   $0x8,%esp
  103829:	39 7d e8       	cmpl   %edi,0xffffffe8(%ebp)
  10382c:	77 da          	ja     103808 <L60>

0010382e <L57>:
  10382e:	89 d8          	movl   %ebx,%eax
  103830:	83 e0 60       	andl   $0x60,%eax
  103833:	83 f8 20       	cmpl   $0x20,%eax
  103836:	75 1b          	jne    103853 <L84>
  103838:	ff 75 e0       	pushl  0xffffffe0(%ebp)
  10383b:	6a 2d          	pushl  $0x2d
  10383d:	eb 09          	jmp    103848 <L85>
  10383f:	90             	nop    

00103840 <L67>:
  103840:	ff 75 e0       	pushl  0xffffffe0(%ebp)
  103843:	0f be 06       	movsbl (%esi),%eax
  103846:	50             	pushl  %eax
  103847:	46             	incl   %esi

00103848 <L85>:
  103848:	8b 4d 10       	movl   0x10(%ebp),%ecx
  10384b:	ff d1          	call   *%ecx
  10384d:	ff 45 ec       	incl   0xffffffec(%ebp)
  103850:	83 c4 08       	addl   $0x8,%esp

00103853 <L84>:
  103853:	80 3e 00       	cmpb   $0x0,(%esi)
  103856:	75 e8          	jne    103840 <L67>
  103858:	39 7d e8       	cmpl   %edi,0xffffffe8(%ebp)
  10385b:	72 1c          	jb     103879 <L78>
  10385d:	29 7d e8       	subl   %edi,0xffffffe8(%ebp)
  103860:	74 17          	je     103879 <L78>
  103862:	89 f6          	movl   %esi,%esi

00103864 <L74>:
  103864:	ff 75 e0       	pushl  0xffffffe0(%ebp)
  103867:	6a 20          	pushl  $0x20
  103869:	8b 45 10       	movl   0x10(%ebp),%eax
  10386c:	ff d0          	call   *%eax
  10386e:	ff 45 ec       	incl   0xffffffec(%ebp)
  103871:	83 c4 08       	addl   $0x8,%esp
  103874:	ff 4d e8       	decl   0xffffffe8(%ebp)
  103877:	75 eb          	jne    103864 <L74>

00103879 <L78>:
  103879:	31 db          	xorl   %ebx,%ebx
  10387b:	89 5d e8       	movl   %ebx,0xffffffe8(%ebp)
  10387e:	89 de          	movl   %ebx,%esi

00103880 <L4>:
  103880:	ff 45 08       	incl   0x8(%ebp)
  103883:	8b 4d 08       	movl   0x8(%ebp),%ecx
  103886:	80 39 00       	cmpb   $0x0,(%ecx)
  103889:	0f 85 c1 fc ff 	jne    103550 <L5>
  10388e:	ff 

0010388f <L3>:
  10388f:	8b 45 ec       	movl   0xffffffec(%ebp),%eax
  103892:	8d 65 cc       	leal   0xffffffcc(%ebp),%esp
  103895:	5b             	popl   %ebx
  103896:	5e             	popl   %esi
  103897:	5f             	popl   %edi
  103898:	c9             	leave  
  103899:	c3             	ret    
  10389a:	89 f6          	movl   %esi,%esi
	...
